ARM GAS  C:\Users\Xwx47\AppData\Local\Temp\cctwqWqW.s 			page 1


   1              		.syntax unified
   2              		.cpu cortex-m0
   3              		.fpu softvfp
   4              		.eabi_attribute 20, 1
   5              		.eabi_attribute 21, 1
   6              		.eabi_attribute 23, 3
   7              		.eabi_attribute 24, 1
   8              		.eabi_attribute 25, 1
   9              		.eabi_attribute 26, 1
  10              		.eabi_attribute 30, 1
  11              		.eabi_attribute 34, 0
  12              		.eabi_attribute 18, 4
  13              		.thumb
  14              		.syntax unified
  15              		.file	"heap_1.c"
  16              		.text
  17              	.Ltext0:
  18              		.cfi_sections	.debug_frame
  19              		.section	.text.pvPortMalloc,"ax",%progbits
  20              		.align	2
  21              		.global	pvPortMalloc
  22              		.code	16
  23              		.thumb_func
  24              		.type	pvPortMalloc, %function
  25              	pvPortMalloc:
  26              	.LFB32:
  27              		.file 1 "..\\FreeRTOS\\portable\\MemMang\\heap_1.c"
   1:..\FreeRTOS\portable\MemMang/heap_1.c **** /*
   2:..\FreeRTOS\portable\MemMang/heap_1.c ****  * FreeRTOS Kernel V10.0.0
   3:..\FreeRTOS\portable\MemMang/heap_1.c ****  * Copyright (C) 2017 Amazon.com, Inc. or its affiliates.  All Rights Reserved.
   4:..\FreeRTOS\portable\MemMang/heap_1.c ****  *
   5:..\FreeRTOS\portable\MemMang/heap_1.c ****  * Permission is hereby granted, free of charge, to any person obtaining a copy of
   6:..\FreeRTOS\portable\MemMang/heap_1.c ****  * this software and associated documentation files (the "Software"), to deal in
   7:..\FreeRTOS\portable\MemMang/heap_1.c ****  * the Software without restriction, including without limitation the rights to
   8:..\FreeRTOS\portable\MemMang/heap_1.c ****  * use, copy, modify, merge, publish, distribute, sublicense, and/or sell copies of
   9:..\FreeRTOS\portable\MemMang/heap_1.c ****  * the Software, and to permit persons to whom the Software is furnished to do so,
  10:..\FreeRTOS\portable\MemMang/heap_1.c ****  * subject to the following conditions:
  11:..\FreeRTOS\portable\MemMang/heap_1.c ****  *
  12:..\FreeRTOS\portable\MemMang/heap_1.c ****  * The above copyright notice and this permission notice shall be included in all
  13:..\FreeRTOS\portable\MemMang/heap_1.c ****  * copies or substantial portions of the Software. If you wish to use our Amazon
  14:..\FreeRTOS\portable\MemMang/heap_1.c ****  * FreeRTOS name, please do so in a fair use way that does not cause confusion.
  15:..\FreeRTOS\portable\MemMang/heap_1.c ****  *
  16:..\FreeRTOS\portable\MemMang/heap_1.c ****  * THE SOFTWARE IS PROVIDED "AS IS", WITHOUT WARRANTY OF ANY KIND, EXPRESS OR
  17:..\FreeRTOS\portable\MemMang/heap_1.c ****  * IMPLIED, INCLUDING BUT NOT LIMITED TO THE WARRANTIES OF MERCHANTABILITY, FITNESS
  18:..\FreeRTOS\portable\MemMang/heap_1.c ****  * FOR A PARTICULAR PURPOSE AND NONINFRINGEMENT. IN NO EVENT SHALL THE AUTHORS OR
  19:..\FreeRTOS\portable\MemMang/heap_1.c ****  * COPYRIGHT HOLDERS BE LIABLE FOR ANY CLAIM, DAMAGES OR OTHER LIABILITY, WHETHER
  20:..\FreeRTOS\portable\MemMang/heap_1.c ****  * IN AN ACTION OF CONTRACT, TORT OR OTHERWISE, ARISING FROM, OUT OF OR IN
  21:..\FreeRTOS\portable\MemMang/heap_1.c ****  * CONNECTION WITH THE SOFTWARE OR THE USE OR OTHER DEALINGS IN THE SOFTWARE.
  22:..\FreeRTOS\portable\MemMang/heap_1.c ****  *
  23:..\FreeRTOS\portable\MemMang/heap_1.c ****  * http://www.FreeRTOS.org
  24:..\FreeRTOS\portable\MemMang/heap_1.c ****  * http://aws.amazon.com/freertos
  25:..\FreeRTOS\portable\MemMang/heap_1.c ****  *
  26:..\FreeRTOS\portable\MemMang/heap_1.c ****  * 1 tab == 4 spaces!
  27:..\FreeRTOS\portable\MemMang/heap_1.c ****  */
  28:..\FreeRTOS\portable\MemMang/heap_1.c **** 
  29:..\FreeRTOS\portable\MemMang/heap_1.c **** 
  30:..\FreeRTOS\portable\MemMang/heap_1.c **** /*
ARM GAS  C:\Users\Xwx47\AppData\Local\Temp\cctwqWqW.s 			page 2


  31:..\FreeRTOS\portable\MemMang/heap_1.c ****  * The simplest possible implementation of pvPortMalloc().  Note that this
  32:..\FreeRTOS\portable\MemMang/heap_1.c ****  * implementation does NOT allow allocated memory to be freed again.
  33:..\FreeRTOS\portable\MemMang/heap_1.c ****  *
  34:..\FreeRTOS\portable\MemMang/heap_1.c ****  * See heap_2.c, heap_3.c and heap_4.c for alternative implementations, and the
  35:..\FreeRTOS\portable\MemMang/heap_1.c ****  * memory management pages of http://www.FreeRTOS.org for more information.
  36:..\FreeRTOS\portable\MemMang/heap_1.c ****  */
  37:..\FreeRTOS\portable\MemMang/heap_1.c **** #include <stdlib.h>
  38:..\FreeRTOS\portable\MemMang/heap_1.c **** 
  39:..\FreeRTOS\portable\MemMang/heap_1.c **** /* Defining MPU_WRAPPERS_INCLUDED_FROM_API_FILE prevents task.h from redefining
  40:..\FreeRTOS\portable\MemMang/heap_1.c **** all the API functions to use the MPU wrappers.  That should only be done when
  41:..\FreeRTOS\portable\MemMang/heap_1.c **** task.h is included from an application file. */
  42:..\FreeRTOS\portable\MemMang/heap_1.c **** #define MPU_WRAPPERS_INCLUDED_FROM_API_FILE
  43:..\FreeRTOS\portable\MemMang/heap_1.c **** 
  44:..\FreeRTOS\portable\MemMang/heap_1.c **** #include "FreeRTOS.h"
  45:..\FreeRTOS\portable\MemMang/heap_1.c **** #include "task.h"
  46:..\FreeRTOS\portable\MemMang/heap_1.c **** 
  47:..\FreeRTOS\portable\MemMang/heap_1.c **** #undef MPU_WRAPPERS_INCLUDED_FROM_API_FILE
  48:..\FreeRTOS\portable\MemMang/heap_1.c **** 
  49:..\FreeRTOS\portable\MemMang/heap_1.c **** #if( configSUPPORT_DYNAMIC_ALLOCATION == 0 )
  50:..\FreeRTOS\portable\MemMang/heap_1.c **** 	#error This file must not be used if configSUPPORT_DYNAMIC_ALLOCATION is 0
  51:..\FreeRTOS\portable\MemMang/heap_1.c **** #endif
  52:..\FreeRTOS\portable\MemMang/heap_1.c **** 
  53:..\FreeRTOS\portable\MemMang/heap_1.c **** /* A few bytes might be lost to byte aligning the heap start address. */
  54:..\FreeRTOS\portable\MemMang/heap_1.c **** #define configADJUSTED_HEAP_SIZE	( configTOTAL_HEAP_SIZE - portBYTE_ALIGNMENT )
  55:..\FreeRTOS\portable\MemMang/heap_1.c **** 
  56:..\FreeRTOS\portable\MemMang/heap_1.c **** /* Allocate the memory for the heap. */
  57:..\FreeRTOS\portable\MemMang/heap_1.c **** /* Allocate the memory for the heap. */
  58:..\FreeRTOS\portable\MemMang/heap_1.c **** #if( configAPPLICATION_ALLOCATED_HEAP == 1 )
  59:..\FreeRTOS\portable\MemMang/heap_1.c **** 	/* The application writer has already defined the array used for the RTOS
  60:..\FreeRTOS\portable\MemMang/heap_1.c **** 	heap - probably so it can be placed in a special segment or address. */
  61:..\FreeRTOS\portable\MemMang/heap_1.c **** 	extern uint8_t ucHeap[ configTOTAL_HEAP_SIZE ];
  62:..\FreeRTOS\portable\MemMang/heap_1.c **** #else
  63:..\FreeRTOS\portable\MemMang/heap_1.c **** 	static uint8_t ucHeap[ configTOTAL_HEAP_SIZE ];
  64:..\FreeRTOS\portable\MemMang/heap_1.c **** #endif /* configAPPLICATION_ALLOCATED_HEAP */
  65:..\FreeRTOS\portable\MemMang/heap_1.c **** 
  66:..\FreeRTOS\portable\MemMang/heap_1.c **** /* Index into the ucHeap array. */
  67:..\FreeRTOS\portable\MemMang/heap_1.c **** static size_t xNextFreeByte = ( size_t ) 0;
  68:..\FreeRTOS\portable\MemMang/heap_1.c **** 
  69:..\FreeRTOS\portable\MemMang/heap_1.c **** /*-----------------------------------------------------------*/
  70:..\FreeRTOS\portable\MemMang/heap_1.c **** 
  71:..\FreeRTOS\portable\MemMang/heap_1.c **** void *pvPortMalloc( size_t xWantedSize )
  72:..\FreeRTOS\portable\MemMang/heap_1.c **** {
  28              		.loc 1 72 0
  29              		.cfi_startproc
  30              		@ args = 0, pretend = 0, frame = 0
  31              		@ frame_needed = 0, uses_anonymous_args = 0
  32              	.LVL0:
  33 0000 70B5     		push	{r4, r5, r6, lr}
  34              		.cfi_def_cfa_offset 16
  35              		.cfi_offset 4, -16
  36              		.cfi_offset 5, -12
  37              		.cfi_offset 6, -8
  38              		.cfi_offset 14, -4
  39 0002 0400     		movs	r4, r0
  40              	.LVL1:
  73:..\FreeRTOS\portable\MemMang/heap_1.c **** void *pvReturn = NULL;
  74:..\FreeRTOS\portable\MemMang/heap_1.c **** static uint8_t *pucAlignedHeap = NULL;
ARM GAS  C:\Users\Xwx47\AppData\Local\Temp\cctwqWqW.s 			page 3


  75:..\FreeRTOS\portable\MemMang/heap_1.c **** 
  76:..\FreeRTOS\portable\MemMang/heap_1.c **** 	/* Ensure that blocks are always aligned to the required number of bytes. */
  77:..\FreeRTOS\portable\MemMang/heap_1.c **** 	#if( portBYTE_ALIGNMENT != 1 )
  78:..\FreeRTOS\portable\MemMang/heap_1.c **** 	{
  79:..\FreeRTOS\portable\MemMang/heap_1.c **** 		if( xWantedSize & portBYTE_ALIGNMENT_MASK )
  41              		.loc 1 79 0
  42 0004 4307     		lsls	r3, r0, #29
  43 0006 02D0     		beq	.L2
  80:..\FreeRTOS\portable\MemMang/heap_1.c **** 		{
  81:..\FreeRTOS\portable\MemMang/heap_1.c **** 			/* Byte alignment required. */
  82:..\FreeRTOS\portable\MemMang/heap_1.c **** 			xWantedSize += ( portBYTE_ALIGNMENT - ( xWantedSize & portBYTE_ALIGNMENT_MASK ) );
  44              		.loc 1 82 0
  45 0008 0723     		movs	r3, #7
  46 000a 9C43     		bics	r4, r3
  47 000c 0834     		adds	r4, r4, #8
  48              	.LVL2:
  49              	.L2:
  83:..\FreeRTOS\portable\MemMang/heap_1.c **** 		}
  84:..\FreeRTOS\portable\MemMang/heap_1.c **** 	}
  85:..\FreeRTOS\portable\MemMang/heap_1.c **** 	#endif
  86:..\FreeRTOS\portable\MemMang/heap_1.c **** 
  87:..\FreeRTOS\portable\MemMang/heap_1.c **** 	vTaskSuspendAll();
  50              		.loc 1 87 0
  51 000e FFF7FEFF 		bl	vTaskSuspendAll
  52              	.LVL3:
  88:..\FreeRTOS\portable\MemMang/heap_1.c **** 	{
  89:..\FreeRTOS\portable\MemMang/heap_1.c **** 		if( pucAlignedHeap == NULL )
  53              		.loc 1 89 0
  54 0012 114B     		ldr	r3, .L8
  55 0014 1B68     		ldr	r3, [r3]
  56 0016 002B     		cmp	r3, #0
  57 0018 05D1     		bne	.L3
  90:..\FreeRTOS\portable\MemMang/heap_1.c **** 		{
  91:..\FreeRTOS\portable\MemMang/heap_1.c **** 			/* Ensure the heap starts on a correctly aligned boundary. */
  92:..\FreeRTOS\portable\MemMang/heap_1.c **** 			pucAlignedHeap = ( uint8_t * ) ( ( ( portPOINTER_SIZE_TYPE ) &ucHeap[ portBYTE_ALIGNMENT ] ) & (
  58              		.loc 1 92 0
  59 001a 0F4A     		ldr	r2, .L8
  60 001c 1300     		movs	r3, r2
  61 001e 0C33     		adds	r3, r3, #12
  62 0020 0721     		movs	r1, #7
  63 0022 8B43     		bics	r3, r1
  64 0024 1360     		str	r3, [r2]
  65              	.L3:
  93:..\FreeRTOS\portable\MemMang/heap_1.c **** 		}
  94:..\FreeRTOS\portable\MemMang/heap_1.c **** 
  95:..\FreeRTOS\portable\MemMang/heap_1.c **** 		/* Check there is enough room left for the allocation. */
  96:..\FreeRTOS\portable\MemMang/heap_1.c **** 		if( ( ( xNextFreeByte + xWantedSize ) < configADJUSTED_HEAP_SIZE ) &&
  66              		.loc 1 96 0
  67 0026 0D4B     		ldr	r3, .L8+4
  68 0028 5B68     		ldr	r3, [r3, #4]
  69 002a E418     		adds	r4, r4, r3
  70              	.LVL4:
  71 002c 0C4A     		ldr	r2, .L8+8
  72 002e 9442     		cmp	r4, r2
  73 0030 07D8     		bhi	.L6
  74              		.loc 1 96 0 is_stmt 0 discriminator 1
  75 0032 A342     		cmp	r3, r4
ARM GAS  C:\Users\Xwx47\AppData\Local\Temp\cctwqWqW.s 			page 4


  76 0034 07D2     		bcs	.L7
  97:..\FreeRTOS\portable\MemMang/heap_1.c **** 			( ( xNextFreeByte + xWantedSize ) > xNextFreeByte )	)/* Check for overflow. */
  98:..\FreeRTOS\portable\MemMang/heap_1.c **** 		{
  99:..\FreeRTOS\portable\MemMang/heap_1.c **** 			/* Return the next free byte then increment the index past this
 100:..\FreeRTOS\portable\MemMang/heap_1.c **** 			block. */
 101:..\FreeRTOS\portable\MemMang/heap_1.c **** 			pvReturn = pucAlignedHeap + xNextFreeByte;
  77              		.loc 1 101 0 is_stmt 1
  78 0036 084A     		ldr	r2, .L8
  79 0038 1568     		ldr	r5, [r2]
  80 003a ED18     		adds	r5, r5, r3
  81              	.LVL5:
 102:..\FreeRTOS\portable\MemMang/heap_1.c **** 			xNextFreeByte += xWantedSize;
  82              		.loc 1 102 0
  83 003c 074B     		ldr	r3, .L8+4
  84 003e 5C60     		str	r4, [r3, #4]
  85 0040 02E0     		b	.L4
  86              	.LVL6:
  87              	.L6:
  73:..\FreeRTOS\portable\MemMang/heap_1.c **** static uint8_t *pucAlignedHeap = NULL;
  88              		.loc 1 73 0
  89 0042 0025     		movs	r5, #0
  90 0044 00E0     		b	.L4
  91              	.L7:
  92 0046 0025     		movs	r5, #0
  93              	.LVL7:
  94              	.L4:
 103:..\FreeRTOS\portable\MemMang/heap_1.c **** 		}
 104:..\FreeRTOS\portable\MemMang/heap_1.c **** 
 105:..\FreeRTOS\portable\MemMang/heap_1.c **** 		traceMALLOC( pvReturn, xWantedSize );
 106:..\FreeRTOS\portable\MemMang/heap_1.c **** 	}
 107:..\FreeRTOS\portable\MemMang/heap_1.c **** 	( void ) xTaskResumeAll();
  95              		.loc 1 107 0
  96 0048 FFF7FEFF 		bl	xTaskResumeAll
  97              	.LVL8:
 108:..\FreeRTOS\portable\MemMang/heap_1.c **** 
 109:..\FreeRTOS\portable\MemMang/heap_1.c **** 	#if( configUSE_MALLOC_FAILED_HOOK == 1 )
 110:..\FreeRTOS\portable\MemMang/heap_1.c **** 	{
 111:..\FreeRTOS\portable\MemMang/heap_1.c **** 		if( pvReturn == NULL )
  98              		.loc 1 111 0
  99 004c 002D     		cmp	r5, #0
 100 004e 01D1     		bne	.L5
 101              	.LBB2:
 112:..\FreeRTOS\portable\MemMang/heap_1.c **** 		{
 113:..\FreeRTOS\portable\MemMang/heap_1.c **** 			extern void vApplicationMallocFailedHook( void );
 114:..\FreeRTOS\portable\MemMang/heap_1.c **** 			vApplicationMallocFailedHook();
 102              		.loc 1 114 0
 103 0050 FFF7FEFF 		bl	vApplicationMallocFailedHook
 104              	.LVL9:
 105              	.L5:
 106              	.LBE2:
 115:..\FreeRTOS\portable\MemMang/heap_1.c **** 		}
 116:..\FreeRTOS\portable\MemMang/heap_1.c **** 	}
 117:..\FreeRTOS\portable\MemMang/heap_1.c **** 	#endif
 118:..\FreeRTOS\portable\MemMang/heap_1.c **** 
 119:..\FreeRTOS\portable\MemMang/heap_1.c **** 	return pvReturn;
 120:..\FreeRTOS\portable\MemMang/heap_1.c **** }
 107              		.loc 1 120 0
ARM GAS  C:\Users\Xwx47\AppData\Local\Temp\cctwqWqW.s 			page 5


 108 0054 2800     		movs	r0, r5
 109              		@ sp needed
 110              	.LVL10:
 111 0056 70BD     		pop	{r4, r5, r6, pc}
 112              	.L9:
 113              		.align	2
 114              	.L8:
 115 0058 00000000 		.word	.LANCHOR0
 116 005c 00040000 		.word	.LANCHOR1
 117 0060 F7030000 		.word	1015
 118              		.cfi_endproc
 119              	.LFE32:
 120              		.size	pvPortMalloc, .-pvPortMalloc
 121              		.section	.text.vPortFree,"ax",%progbits
 122              		.align	2
 123              		.global	vPortFree
 124              		.code	16
 125              		.thumb_func
 126              		.type	vPortFree, %function
 127              	vPortFree:
 128              	.LFB33:
 121:..\FreeRTOS\portable\MemMang/heap_1.c **** /*-----------------------------------------------------------*/
 122:..\FreeRTOS\portable\MemMang/heap_1.c **** 
 123:..\FreeRTOS\portable\MemMang/heap_1.c **** void vPortFree( void *pv )
 124:..\FreeRTOS\portable\MemMang/heap_1.c **** {
 129              		.loc 1 124 0
 130              		.cfi_startproc
 131              		@ args = 0, pretend = 0, frame = 0
 132              		@ frame_needed = 0, uses_anonymous_args = 0
 133              		@ link register save eliminated.
 134              	.LVL11:
 125:..\FreeRTOS\portable\MemMang/heap_1.c **** 	/* Memory cannot be freed using this scheme.  See heap_2.c, heap_3.c and
 126:..\FreeRTOS\portable\MemMang/heap_1.c **** 	heap_4.c for alternative implementations, and the memory management pages of
 127:..\FreeRTOS\portable\MemMang/heap_1.c **** 	http://www.FreeRTOS.org for more information. */
 128:..\FreeRTOS\portable\MemMang/heap_1.c **** 	( void ) pv;
 129:..\FreeRTOS\portable\MemMang/heap_1.c **** 
 130:..\FreeRTOS\portable\MemMang/heap_1.c **** 	/* Force an assert as it is invalid to call this function. */
 131:..\FreeRTOS\portable\MemMang/heap_1.c **** 	configASSERT( pv == NULL );
 132:..\FreeRTOS\portable\MemMang/heap_1.c **** }
 135              		.loc 1 132 0
 136              		@ sp needed
 137 0000 7047     		bx	lr
 138              		.cfi_endproc
 139              	.LFE33:
 140              		.size	vPortFree, .-vPortFree
 141 0002 C046     		.section	.text.vPortInitialiseBlocks,"ax",%progbits
 142              		.align	2
 143              		.global	vPortInitialiseBlocks
 144              		.code	16
 145              		.thumb_func
 146              		.type	vPortInitialiseBlocks, %function
 147              	vPortInitialiseBlocks:
 148              	.LFB34:
 133:..\FreeRTOS\portable\MemMang/heap_1.c **** /*-----------------------------------------------------------*/
 134:..\FreeRTOS\portable\MemMang/heap_1.c **** 
 135:..\FreeRTOS\portable\MemMang/heap_1.c **** void vPortInitialiseBlocks( void )
 136:..\FreeRTOS\portable\MemMang/heap_1.c **** {
ARM GAS  C:\Users\Xwx47\AppData\Local\Temp\cctwqWqW.s 			page 6


 149              		.loc 1 136 0
 150              		.cfi_startproc
 151              		@ args = 0, pretend = 0, frame = 0
 152              		@ frame_needed = 0, uses_anonymous_args = 0
 153              		@ link register save eliminated.
 137:..\FreeRTOS\portable\MemMang/heap_1.c **** 	/* Only required when static memory is not cleared. */
 138:..\FreeRTOS\portable\MemMang/heap_1.c **** 	xNextFreeByte = ( size_t ) 0;
 154              		.loc 1 138 0
 155 0000 0022     		movs	r2, #0
 156 0002 014B     		ldr	r3, .L12
 157 0004 5A60     		str	r2, [r3, #4]
 139:..\FreeRTOS\portable\MemMang/heap_1.c **** }
 158              		.loc 1 139 0
 159              		@ sp needed
 160 0006 7047     		bx	lr
 161              	.L13:
 162              		.align	2
 163              	.L12:
 164 0008 00040000 		.word	.LANCHOR1
 165              		.cfi_endproc
 166              	.LFE34:
 167              		.size	vPortInitialiseBlocks, .-vPortInitialiseBlocks
 168              		.section	.text.xPortGetFreeHeapSize,"ax",%progbits
 169              		.align	2
 170              		.global	xPortGetFreeHeapSize
 171              		.code	16
 172              		.thumb_func
 173              		.type	xPortGetFreeHeapSize, %function
 174              	xPortGetFreeHeapSize:
 175              	.LFB35:
 140:..\FreeRTOS\portable\MemMang/heap_1.c **** /*-----------------------------------------------------------*/
 141:..\FreeRTOS\portable\MemMang/heap_1.c **** 
 142:..\FreeRTOS\portable\MemMang/heap_1.c **** size_t xPortGetFreeHeapSize( void )
 143:..\FreeRTOS\portable\MemMang/heap_1.c **** {
 176              		.loc 1 143 0
 177              		.cfi_startproc
 178              		@ args = 0, pretend = 0, frame = 0
 179              		@ frame_needed = 0, uses_anonymous_args = 0
 180              		@ link register save eliminated.
 144:..\FreeRTOS\portable\MemMang/heap_1.c **** 	return ( configADJUSTED_HEAP_SIZE - xNextFreeByte );
 181              		.loc 1 144 0
 182 0000 024B     		ldr	r3, .L15
 183 0002 5868     		ldr	r0, [r3, #4]
 184 0004 FE23     		movs	r3, #254
 185 0006 9B00     		lsls	r3, r3, #2
 186 0008 181A     		subs	r0, r3, r0
 145:..\FreeRTOS\portable\MemMang/heap_1.c **** }
 187              		.loc 1 145 0
 188              		@ sp needed
 189 000a 7047     		bx	lr
 190              	.L16:
 191              		.align	2
 192              	.L15:
 193 000c 00040000 		.word	.LANCHOR1
 194              		.cfi_endproc
 195              	.LFE35:
 196              		.size	xPortGetFreeHeapSize, .-xPortGetFreeHeapSize
ARM GAS  C:\Users\Xwx47\AppData\Local\Temp\cctwqWqW.s 			page 7


 197              		.bss
 198              		.align	2
 199              		.set	.LANCHOR0,. + 0
 200              		.set	.LANCHOR1,. + 1024
 201              		.type	pucAlignedHeap.6503, %object
 202              		.size	pucAlignedHeap.6503, 4
 203              	pucAlignedHeap.6503:
 204 0000 00000000 		.space	4
 205              		.type	ucHeap, %object
 206              		.size	ucHeap, 1024
 207              	ucHeap:
 208 0004 00000000 		.space	1024
 208      00000000 
 208      00000000 
 208      00000000 
 208      00000000 
 209              		.type	xNextFreeByte, %object
 210              		.size	xNextFreeByte, 4
 211              	xNextFreeByte:
 212 0404 00000000 		.space	4
 213              		.text
 214              	.Letext0:
 215              		.file 2 "c:\\program files (x86)\\cypress\\psoc creator\\4.1\\psoc creator\\import\\gnu\\arm\\5.4.
 216              		.file 3 "c:\\program files (x86)\\cypress\\psoc creator\\4.1\\psoc creator\\import\\gnu\\arm\\5.4.
 217              		.file 4 "c:\\program files (x86)\\cypress\\psoc creator\\4.1\\psoc creator\\import\\gnu\\arm\\5.4.
 218              		.file 5 "..\\FreeRTOS\\include/task.h"
 219              		.file 6 "Generated_Source\\PSoC4/RF1_REGS.h"