ARM GAS  C:\Users\Xwx47\AppData\Local\Temp\ccLO7Mta.s 			page 1


   1              		.syntax unified
   2              		.cpu cortex-m0
   3              		.fpu softvfp
   4              		.eabi_attribute 20, 1
   5              		.eabi_attribute 21, 1
   6              		.eabi_attribute 23, 3
   7              		.eabi_attribute 24, 1
   8              		.eabi_attribute 25, 1
   9              		.eabi_attribute 26, 1
  10              		.eabi_attribute 30, 1
  11              		.eabi_attribute 34, 0
  12              		.eabi_attribute 18, 4
  13              		.thumb
  14              		.syntax unified
  15              		.file	"main.c"
  16              		.text
  17              	.Ltext0:
  18              		.cfi_sections	.debug_frame
  19              		.section	.text.prvHardwareSetup,"ax",%progbits
  20              		.align	2
  21              		.global	prvHardwareSetup
  22              		.code	16
  23              		.thumb_func
  24              		.type	prvHardwareSetup, %function
  25              	prvHardwareSetup:
  26              	.LFB33:
  27              		.file 1 "main.c"
   1:main.c        **** #include "project.h"
   2:main.c        **** 
   3:main.c        **** #include "FreeRTOS.h"
   4:main.c        **** #include "task.h"
   5:main.c        **** 
   6:main.c        **** #include "RNet_App.h"
   7:main.c        **** 
   8:main.c        **** void prvHardwareSetup(void);
   9:main.c        **** 
  10:main.c        **** int main(void)
  11:main.c        **** {    
  12:main.c        ****     prvHardwareSetup();
  13:main.c        **** 
  14:main.c        ****     RNETApp_Init();
  15:main.c        ****     
  16:main.c        ****     vTaskStartScheduler();
  17:main.c        **** 
  18:main.c        ****     while(1) {
  19:main.c        ****     }
  20:main.c        **** }
  21:main.c        **** 
  22:main.c        **** void prvHardwareSetup(void)
  23:main.c        **** {
  28              		.loc 1 23 0
  29              		.cfi_startproc
  30              		@ args = 0, pretend = 0, frame = 0
  31              		@ frame_needed = 0, uses_anonymous_args = 0
  32 0000 10B5     		push	{r4, lr}
  33              		.cfi_def_cfa_offset 8
  34              		.cfi_offset 4, -8
ARM GAS  C:\Users\Xwx47\AppData\Local\Temp\ccLO7Mta.s 			page 2


  35              		.cfi_offset 14, -4
  36              	.LVL0:
  24:main.c        ****     // Port layer functions that need to be copied into the vector table.
  25:main.c        ****     extern void xPortPendSVHandler(void);
  26:main.c        ****     extern void xPortSysTickHandler(void);
  27:main.c        ****     extern void vPortSVCHandler(void );
  28:main.c        **** 
  29:main.c        ****     const uint8_t CORTEX_INTERRUPT_BASE = 16;
  30:main.c        ****     // Handler for Cortex Supervisor Call (SVC) - Address 11 (SVCall_IRQn = -5)
  31:main.c        ****     CyIntSetSysVector(CORTEX_INTERRUPT_BASE + SVCall_IRQn,
  37              		.loc 1 31 0
  38 0002 0949     		ldr	r1, .L2
  39 0004 0B20     		movs	r0, #11
  40 0006 FFF7FEFF 		bl	CyIntSetSysVector
  41              	.LVL1:
  32:main.c        ****                     (cyisraddress) vPortSVCHandler);
  33:main.c        ****     // Handler for Cortex PendSV Call - Address 14 (PendSV_IRQn = -2)
  34:main.c        ****     CyIntSetSysVector(CORTEX_INTERRUPT_BASE + PendSV_IRQn,
  42              		.loc 1 34 0
  43 000a 0849     		ldr	r1, .L2+4
  44 000c 0E20     		movs	r0, #14
  45 000e FFF7FEFF 		bl	CyIntSetSysVector
  46              	.LVL2:
  35:main.c        ****                     (cyisraddress) xPortPendSVHandler);
  36:main.c        ****     // Handler for Cortex SYSTICK - Address 15 (SysTick_IRQn = -1)
  37:main.c        ****     CyIntSetSysVector(CORTEX_INTERRUPT_BASE + SysTick_IRQn,
  47              		.loc 1 37 0
  48 0012 0749     		ldr	r1, .L2+8
  49 0014 0F20     		movs	r0, #15
  50 0016 FFF7FEFF 		bl	CyIntSetSysVector
  51              	.LVL3:
  38:main.c        ****                     (cyisraddress) xPortSysTickHandler);
  39:main.c        ****     
  40:main.c        ****     // Start-up the peripherals.
  41:main.c        ****     CyGlobalIntEnable;
  52              		.loc 1 41 0
  53              		.syntax divided
  54              	@ 41 "main.c" 1
  55 001a 62B6     		CPSIE   i
  56              	@ 0 "" 2
  42:main.c        ****     
  43:main.c        ****     UART_Start();
  57              		.loc 1 43 0
  58              		.thumb
  59              		.syntax unified
  60 001c FFF7FEFF 		bl	UART_Start
  61              	.LVL4:
  44:main.c        ****     // The SPI is started on the rf1_start function
  45:main.c        ****     RF1_start();
  62              		.loc 1 45 0
  63 0020 FFF7FEFF 		bl	RF1_start
  64              	.LVL5:
  46:main.c        **** }
  65              		.loc 1 46 0
  66              		@ sp needed
  67 0024 10BD     		pop	{r4, pc}
  68              	.L3:
ARM GAS  C:\Users\Xwx47\AppData\Local\Temp\ccLO7Mta.s 			page 3


  69 0026 C046     		.align	2
  70              	.L2:
  71 0028 00000000 		.word	SVC_Handler
  72 002c 00000000 		.word	PendSV_Handler
  73 0030 00000000 		.word	SysTick_Handler
  74              		.cfi_endproc
  75              	.LFE33:
  76              		.size	prvHardwareSetup, .-prvHardwareSetup
  77              		.section	.text.main,"ax",%progbits
  78              		.align	2
  79              		.global	main
  80              		.code	16
  81              		.thumb_func
  82              		.type	main, %function
  83              	main:
  84              	.LFB32:
  11:main.c        ****     prvHardwareSetup();
  85              		.loc 1 11 0
  86              		.cfi_startproc
  87              		@ Volatile: function does not return.
  88              		@ args = 0, pretend = 0, frame = 0
  89              		@ frame_needed = 0, uses_anonymous_args = 0
  90 0000 10B5     		push	{r4, lr}
  91              		.cfi_def_cfa_offset 8
  92              		.cfi_offset 4, -8
  93              		.cfi_offset 14, -4
  12:main.c        **** 
  94              		.loc 1 12 0
  95 0002 FFF7FEFF 		bl	prvHardwareSetup
  96              	.LVL6:
  14:main.c        ****     
  97              		.loc 1 14 0
  98 0006 FFF7FEFF 		bl	RNETApp_Init
  99              	.LVL7:
  16:main.c        **** 
 100              		.loc 1 16 0
 101 000a FFF7FEFF 		bl	vTaskStartScheduler
 102              	.LVL8:
 103              	.L5:
 104 000e FEE7     		b	.L5
 105              		.cfi_endproc
 106              	.LFE32:
 107              		.size	main, .-main
 108              		.section	.text.vApplicationMallocFailedHook,"ax",%progbits
 109              		.align	2
 110              		.global	vApplicationMallocFailedHook
 111              		.code	16
 112              		.thumb_func
 113              		.type	vApplicationMallocFailedHook, %function
 114              	vApplicationMallocFailedHook:
 115              	.LFB34:
  47:main.c        **** 
  48:main.c        **** // The heap space has been execeeded.
  49:main.c        **** void vApplicationMallocFailedHook(void)
  50:main.c        **** {
 116              		.loc 1 50 0
 117              		.cfi_startproc
ARM GAS  C:\Users\Xwx47\AppData\Local\Temp\ccLO7Mta.s 			page 4


 118              		@ Volatile: function does not return.
 119              		@ args = 0, pretend = 0, frame = 0
 120              		@ frame_needed = 0, uses_anonymous_args = 0
 121              		@ link register save eliminated.
  51:main.c        ****     taskDISABLE_INTERRUPTS();
 122              		.loc 1 51 0
 123              		.syntax divided
 124              	@ 51 "main.c" 1
 125 0000 72B6     		 cpsid i 
 126              	@ 0 "" 2
 127              		.thumb
 128              		.syntax unified
 129              	.L7:
 130 0002 FEE7     		b	.L7
 131              		.cfi_endproc
 132              	.LFE34:
 133              		.size	vApplicationMallocFailedHook, .-vApplicationMallocFailedHook
 134              		.section	.text.vApplicationStackOverflowHook,"ax",%progbits
 135              		.align	2
 136              		.global	vApplicationStackOverflowHook
 137              		.code	16
 138              		.thumb_func
 139              		.type	vApplicationStackOverflowHook, %function
 140              	vApplicationStackOverflowHook:
 141              	.LFB35:
  52:main.c        ****     while(1) {
  53:main.c        ****     }
  54:main.c        **** }
  55:main.c        **** 
  56:main.c        **** // The stack space has been overflowed
  57:main.c        **** void vApplicationStackOverflowHook(void)
  58:main.c        **** {
 142              		.loc 1 58 0
 143              		.cfi_startproc
 144              		@ Volatile: function does not return.
 145              		@ args = 0, pretend = 0, frame = 0
 146              		@ frame_needed = 0, uses_anonymous_args = 0
 147              		@ link register save eliminated.
  59:main.c        ****     taskDISABLE_INTERRUPTS();
 148              		.loc 1 59 0
 149              		.syntax divided
 150              	@ 59 "main.c" 1
 151 0000 72B6     		 cpsid i 
 152              	@ 0 "" 2
 153              		.thumb
 154              		.syntax unified
 155              	.L9:
 156 0002 FEE7     		b	.L9
 157              		.cfi_endproc
 158              	.LFE35:
 159              		.size	vApplicationStackOverflowHook, .-vApplicationStackOverflowHook
 160              		.text
 161              	.Letext0:
 162              		.file 2 "c:\\program files (x86)\\cypress\\psoc creator\\4.1\\psoc creator\\import\\gnu\\arm\\5.4.
 163              		.file 3 "c:\\program files (x86)\\cypress\\psoc creator\\4.1\\psoc creator\\import\\gnu\\arm\\5.4.
 164              		.file 4 "Generated_Source\\PSoC4/cytypes.h"
 165              		.file 5 "Generated_Source\\PSoC4/CyLib.h"
ARM GAS  C:\Users\Xwx47\AppData\Local\Temp\ccLO7Mta.s 			page 5


 166              		.file 6 "Generated_Source\\PSoC4/UART.h"
 167              		.file 7 "Generated_Source\\PSoC4/RF1_FUNCS.h"
 168              		.file 8 "RNet_App.h"
 169              		.file 9 "..\\FreeRTOS\\include/task.h"
 170              		.file 10 "Generated_Source\\PSoC4/core_cm0_psoc4.h"