ARM GAS  C:\Users\Xwx47\AppData\Local\Temp\ccLk5NLb.s 			page 1


   1              		.syntax unified
   2              		.cpu cortex-m0
   3              		.fpu softvfp
   4              		.eabi_attribute 20, 1
   5              		.eabi_attribute 21, 1
   6              		.eabi_attribute 23, 3
   7              		.eabi_attribute 24, 1
   8              		.eabi_attribute 25, 1
   9              		.eabi_attribute 26, 1
  10              		.eabi_attribute 30, 1
  11              		.eabi_attribute 34, 0
  12              		.eabi_attribute 18, 4
  13              		.thumb
  14              		.syntax unified
  15              		.file	"RApp.c"
  16              		.text
  17              	.Ltext0:
  18              		.cfi_sections	.debug_frame
  19              		.section	.text.IterateTable,"ax",%progbits
  20              		.align	2
  21              		.code	16
  22              		.thumb_func
  23              		.type	IterateTable, %function
  24              	IterateTable:
  25              	.LFB2:
  26              		.file 1 "..\\RNET\\RApp.c"
   1:..\RNET/RApp.c **** /**
   2:..\RNET/RApp.c ****  * \file
   3:..\RNET/RApp.c ****  * \brief This is the implementation for the Radio Application service part.
   4:..\RNET/RApp.c ****  * \author (c) 2013-2014 Erich Styger, http://mcuoneclipse.com/
   5:..\RNET/RApp.c ****  * \note MIT License (http://opensource.org/licenses/mit-license.html), see
   6:..\RNET/RApp.c ****  * 'RNet_License.txt'
   7:..\RNET/RApp.c ****  *
   8:..\RNET/RApp.c ****  * This module provides application services of the network stack.
   9:..\RNET/RApp.c ****  */
  10:..\RNET/RApp.c **** 
  11:..\RNET/RApp.c **** #include "RApp.h"
  12:..\RNET/RApp.c **** #include "RNWK.h"
  13:..\RNET/RApp.c **** #include "RNetConf.h"
  14:..\RNET/RApp.c **** 
  15:..\RNET/RApp.c **** #include "Error.h"
  16:..\RNET/RApp.c **** 
  17:..\RNET/RApp.c **** #include <stdbool.h>
  18:..\RNET/RApp.c **** #include <stddef.h>
  19:..\RNET/RApp.c **** 
  20:..\RNET/RApp.c **** static const RAPP_MsgHandler *RAPP_MsgHandlerTable;
  21:..\RNET/RApp.c **** 
  22:..\RNET/RApp.c **** uint8_t RAPP_PutPayload(uint8_t *buf, size_t bufSize, uint8_t payloadSize,
  23:..\RNET/RApp.c ****                         RAPP_MSG_Type type, RAPP_ShortAddrType dstAddr,
  24:..\RNET/RApp.c ****                         RAPP_FlagsType flags)
  25:..\RNET/RApp.c **** {
  26:..\RNET/RApp.c ****     RAPP_BUF_TYPE(buf) = (uint8_t)type;
  27:..\RNET/RApp.c ****     RAPP_BUF_SIZE(buf) = payloadSize;
  28:..\RNET/RApp.c ****     
  29:..\RNET/RApp.c ****     return RNWK_PutPayload(buf, bufSize, payloadSize + RAPP_HEADER_SIZE,
  30:..\RNET/RApp.c ****                            dstAddr, flags);
  31:..\RNET/RApp.c **** }
ARM GAS  C:\Users\Xwx47\AppData\Local\Temp\ccLk5NLb.s 			page 2


  32:..\RNET/RApp.c **** 
  33:..\RNET/RApp.c **** uint8_t RAPP_SendPayloadDataBlock(uint8_t *appPayload, uint8_t appPayloadSize,
  34:..\RNET/RApp.c ****                                   uint8_t msgType, RAPP_ShortAddrType dstAddr,
  35:..\RNET/RApp.c ****                                   RAPP_FlagsType flags)
  36:..\RNET/RApp.c **** {
  37:..\RNET/RApp.c ****     /* payload data buffer */
  38:..\RNET/RApp.c ****     uint8_t buf[RAPP_BUFFER_SIZE] = {0};
  39:..\RNET/RApp.c ****     //size_t buf_size = sizeof(buf) / sizeof(buf[0]);
  40:..\RNET/RApp.c ****     int i = 0;
  41:..\RNET/RApp.c **** 
  42:..\RNET/RApp.c ****     /* block too large for payload */
  43:..\RNET/RApp.c ****     if (appPayloadSize > RAPP_PAYLOAD_SIZE) {
  44:..\RNET/RApp.c ****         return ERR_OVERFLOW;
  45:..\RNET/RApp.c ****     }
  46:..\RNET/RApp.c ****     
  47:..\RNET/RApp.c ****     while (i < appPayloadSize) {
  48:..\RNET/RApp.c ****         RAPP_BUF_PAYLOAD_START(buf)[i] = *appPayload;
  49:..\RNET/RApp.c ****         appPayload++;
  50:..\RNET/RApp.c ****         i++;
  51:..\RNET/RApp.c ****     }
  52:..\RNET/RApp.c ****     
  53:..\RNET/RApp.c ****     return RAPP_PutPayload(buf, RAPP_BUFFER_SIZE, appPayloadSize,
  54:..\RNET/RApp.c ****                           (RAPP_MSG_Type)msgType, dstAddr, flags);
  55:..\RNET/RApp.c **** }
  56:..\RNET/RApp.c **** 
  57:..\RNET/RApp.c **** static uint8_t IterateTable(RAPP_MSG_Type type, uint8_t size, uint8_t *data,
  58:..\RNET/RApp.c ****                             RAPP_ShortAddrType srcAddr, bool *handled,
  59:..\RNET/RApp.c ****                             RAPP_PacketDesc *packet, const RAPP_MsgHandler *table)
  60:..\RNET/RApp.c **** {
  27              		.loc 1 60 0
  28              		.cfi_startproc
  29              		@ args = 12, pretend = 0, frame = 16
  30              		@ frame_needed = 0, uses_anonymous_args = 0
  31              	.LVL0:
  32 0000 F0B5     		push	{r4, r5, r6, r7, lr}
  33              		.cfi_def_cfa_offset 20
  34              		.cfi_offset 4, -20
  35              		.cfi_offset 5, -16
  36              		.cfi_offset 6, -12
  37              		.cfi_offset 7, -8
  38              		.cfi_offset 14, -4
  39 0002 4746     		mov	r7, r8
  40 0004 80B4     		push	{r7}
  41              		.cfi_def_cfa_offset 24
  42              		.cfi_offset 8, -24
  43 0006 86B0     		sub	sp, sp, #24
  44              		.cfi_def_cfa_offset 48
  45 0008 0290     		str	r0, [sp, #8]
  46 000a 0391     		str	r1, [sp, #12]
  47 000c 0492     		str	r2, [sp, #16]
  48 000e 0593     		str	r3, [sp, #20]
  49 0010 0C9E     		ldr	r6, [sp, #48]
  50 0012 0D9F     		ldr	r7, [sp, #52]
  51 0014 0E9C     		ldr	r4, [sp, #56]
  52              	.LVL1:
  61:..\RNET/RApp.c ****     uint8_t res = ERR_OK;
  62:..\RNET/RApp.c **** 
ARM GAS  C:\Users\Xwx47\AppData\Local\Temp\ccLk5NLb.s 			page 3


  63:..\RNET/RApp.c ****     /* no table??? */
  64:..\RNET/RApp.c ****     if (table == NULL) {
  53              		.loc 1 64 0
  54 0016 002C     		cmp	r4, #0
  55 0018 13D0     		beq	.L6
  56 001a 0023     		movs	r3, #0
  57              	.LVL2:
  58 001c 9846     		mov	r8, r3
  59 001e 0BE0     		b	.L3
  60              	.LVL3:
  61              	.L5:
  65:..\RNET/RApp.c ****         return ERR_FAILED;
  66:..\RNET/RApp.c ****     }
  67:..\RNET/RApp.c ****     
  68:..\RNET/RApp.c ****     /* iterate through all parser functions in table */
  69:..\RNET/RApp.c ****     while (*table != NULL) {
  70:..\RNET/RApp.c ****         if ((*table)(type, size, data, srcAddr, handled, packet) != ERR_OK) {
  62              		.loc 1 70 0
  63 0020 0197     		str	r7, [sp, #4]
  64 0022 0096     		str	r6, [sp]
  65 0024 059B     		ldr	r3, [sp, #20]
  66 0026 049A     		ldr	r2, [sp, #16]
  67 0028 0399     		ldr	r1, [sp, #12]
  68 002a 0298     		ldr	r0, [sp, #8]
  69 002c A847     		blx	r5
  70              	.LVL4:
  71 002e 0028     		cmp	r0, #0
  72 0030 01D0     		beq	.L4
  71:..\RNET/RApp.c ****             res = ERR_FAILED;
  73              		.loc 1 71 0
  74 0032 1B23     		movs	r3, #27
  75 0034 9846     		mov	r8, r3
  76              	.LVL5:
  77              	.L4:
  72:..\RNET/RApp.c ****         }
  73:..\RNET/RApp.c ****         table++;
  78              		.loc 1 73 0
  79 0036 0434     		adds	r4, r4, #4
  80              	.LVL6:
  81              	.L3:
  69:..\RNET/RApp.c ****         if ((*table)(type, size, data, srcAddr, handled, packet) != ERR_OK) {
  82              		.loc 1 69 0
  83 0038 2568     		ldr	r5, [r4]
  84 003a 002D     		cmp	r5, #0
  85 003c F0D1     		bne	.L5
  74:..\RNET/RApp.c ****     }
  75:..\RNET/RApp.c ****     
  76:..\RNET/RApp.c ****     return res;
  86              		.loc 1 76 0
  87 003e 4046     		mov	r0, r8
  88 0040 00E0     		b	.L2
  89              	.LVL7:
  90              	.L6:
  65:..\RNET/RApp.c ****     }
  91              		.loc 1 65 0
  92 0042 1B20     		movs	r0, #27
  93              	.LVL8:
ARM GAS  C:\Users\Xwx47\AppData\Local\Temp\ccLk5NLb.s 			page 4


  94              	.L2:
  77:..\RNET/RApp.c **** }
  95              		.loc 1 77 0
  96 0044 06B0     		add	sp, sp, #24
  97              		@ sp needed
  98 0046 04BC     		pop	{r2}
  99 0048 9046     		mov	r8, r2
 100 004a F0BD     		pop	{r4, r5, r6, r7, pc}
 101              		.cfi_endproc
 102              	.LFE2:
 103              		.size	IterateTable, .-IterateTable
 104              		.section	.text.ParseMessage,"ax",%progbits
 105              		.align	2
 106              		.code	16
 107              		.thumb_func
 108              		.type	ParseMessage, %function
 109              	ParseMessage:
 110              	.LFB3:
  78:..\RNET/RApp.c **** 
  79:..\RNET/RApp.c **** static uint8_t ParseMessage(RAPP_MSG_Type type, uint8_t size, uint8_t *data,
  80:..\RNET/RApp.c ****                             RAPP_ShortAddrType srcAddr, RAPP_PacketDesc *packet)
  81:..\RNET/RApp.c **** {
 111              		.loc 1 81 0
 112              		.cfi_startproc
 113              		@ args = 4, pretend = 0, frame = 8
 114              		@ frame_needed = 0, uses_anonymous_args = 0
 115              	.LVL9:
 116 0000 30B5     		push	{r4, r5, lr}
 117              		.cfi_def_cfa_offset 12
 118              		.cfi_offset 4, -12
 119              		.cfi_offset 5, -8
 120              		.cfi_offset 14, -4
 121 0002 87B0     		sub	sp, sp, #28
 122              		.cfi_def_cfa_offset 40
  82:..\RNET/RApp.c ****     bool handled = false;
 123              		.loc 1 82 0
 124 0004 1724     		movs	r4, #23
 125 0006 6C44     		add	r4, r4, sp
 126 0008 0025     		movs	r5, #0
 127 000a 2570     		strb	r5, [r4]
 128              	.LVL10:
  83:..\RNET/RApp.c ****     uint8_t res = 0;
  84:..\RNET/RApp.c ****     
  85:..\RNET/RApp.c ****     /* iterate through all parser functions in table */
  86:..\RNET/RApp.c ****     res = IterateTable(type, size, data, srcAddr, &handled, packet, RAPP_MsgHandlerTable);
 129              		.loc 1 86 0
 130 000c 094D     		ldr	r5, .L12
 131 000e 2D68     		ldr	r5, [r5]
 132 0010 0295     		str	r5, [sp, #8]
 133 0012 0A9D     		ldr	r5, [sp, #40]
 134 0014 0195     		str	r5, [sp, #4]
 135 0016 0094     		str	r4, [sp]
 136 0018 FFF7FEFF 		bl	IterateTable
 137              	.LVL11:
  87:..\RNET/RApp.c ****     
  88:..\RNET/RApp.c ****     /* no handler has handled the command? */
  89:..\RNET/RApp.c ****     if (ERR_OK != !handled || res) {
ARM GAS  C:\Users\Xwx47\AppData\Local\Temp\ccLk5NLb.s 			page 5


 138              		.loc 1 89 0
 139 001c 2378     		ldrb	r3, [r4]
 140 001e 002B     		cmp	r3, #0
 141 0020 02D0     		beq	.L10
 142              		.loc 1 89 0 is_stmt 0 discriminator 1
 143 0022 0028     		cmp	r0, #0
 144 0024 02D1     		bne	.L11
 145 0026 02E0     		b	.L9
 146              	.L10:
  90:..\RNET/RApp.c ****         res = ERR_FAILED;
 147              		.loc 1 90 0 is_stmt 1
 148 0028 1B20     		movs	r0, #27
 149              	.LVL12:
 150 002a 00E0     		b	.L9
 151              	.LVL13:
 152              	.L11:
 153 002c 1B20     		movs	r0, #27
 154              	.LVL14:
 155              	.L9:
  91:..\RNET/RApp.c ****     }
  92:..\RNET/RApp.c ****     
  93:..\RNET/RApp.c ****     return res;
  94:..\RNET/RApp.c **** }
 156              		.loc 1 94 0
 157 002e 07B0     		add	sp, sp, #28
 158              		@ sp needed
 159 0030 30BD     		pop	{r4, r5, pc}
 160              	.L13:
 161 0032 C046     		.align	2
 162              	.L12:
 163 0034 00000000 		.word	.LANCHOR0
 164              		.cfi_endproc
 165              	.LFE3:
 166              		.size	ParseMessage, .-ParseMessage
 167              		.section	.text.RAPP_OnPacketRx,"ax",%progbits
 168              		.align	2
 169              		.code	16
 170              		.thumb_func
 171              		.type	RAPP_OnPacketRx, %function
 172              	RAPP_OnPacketRx:
 173              	.LFB4:
  95:..\RNET/RApp.c **** 
  96:..\RNET/RApp.c **** static uint8_t RAPP_OnPacketRx(RAPP_PacketDesc *packet)
  97:..\RNET/RApp.c **** {
 174              		.loc 1 97 0
 175              		.cfi_startproc
 176              		@ args = 0, pretend = 0, frame = 0
 177              		@ frame_needed = 0, uses_anonymous_args = 0
 178              	.LVL15:
 179 0000 10B5     		push	{r4, lr}
 180              		.cfi_def_cfa_offset 8
 181              		.cfi_offset 4, -8
 182              		.cfi_offset 14, -4
 183 0002 82B0     		sub	sp, sp, #8
 184              		.cfi_def_cfa_offset 16
 185              	.LVL16:
  98:..\RNET/RApp.c ****     uint8_t size = 0;
ARM GAS  C:\Users\Xwx47\AppData\Local\Temp\ccLk5NLb.s 			page 6


  99:..\RNET/RApp.c ****     uint8_t *data = NULL;
 100:..\RNET/RApp.c ****     RAPP_MSG_Type type;
 101:..\RNET/RApp.c ****     RAPP_ShortAddrType srcAddr;
 102:..\RNET/RApp.c **** 
 103:..\RNET/RApp.c ****     type = (RAPP_MSG_Type)RAPP_BUF_TYPE(packet->phyData);
 186              		.loc 1 103 0
 187 0004 4368     		ldr	r3, [r0, #4]
 188 0006 9C79     		ldrb	r4, [r3, #6]
 189              	.LVL17:
 104:..\RNET/RApp.c ****     size = RAPP_BUF_SIZE(packet->phyData);
 190              		.loc 1 104 0
 191 0008 D979     		ldrb	r1, [r3, #7]
 192              	.LVL18:
 105:..\RNET/RApp.c ****     data = RAPP_BUF_PAYLOAD_START(packet->phyData);
 193              		.loc 1 105 0
 194 000a 1A00     		movs	r2, r3
 195 000c 0832     		adds	r2, r2, #8
 196              	.LVL19:
 106:..\RNET/RApp.c ****     srcAddr = RNWK_BUF_GET_SRC_ADDR(packet->phyData);
 197              		.loc 1 106 0
 198 000e 1B79     		ldrb	r3, [r3, #4]
 199              	.LVL20:
 107:..\RNET/RApp.c ****     
 108:..\RNET/RApp.c ****     return ParseMessage(type, size, data, srcAddr, packet);
 200              		.loc 1 108 0
 201 0010 0090     		str	r0, [sp]
 202 0012 2000     		movs	r0, r4
 203              	.LVL21:
 204 0014 FFF7FEFF 		bl	ParseMessage
 205              	.LVL22:
 109:..\RNET/RApp.c **** }
 206              		.loc 1 109 0
 207 0018 02B0     		add	sp, sp, #8
 208              		@ sp needed
 209              	.LVL23:
 210 001a 10BD     		pop	{r4, pc}
 211              		.cfi_endproc
 212              	.LFE4:
 213              		.size	RAPP_OnPacketRx, .-RAPP_OnPacketRx
 214              		.section	.text.RAPP_PutPayload,"ax",%progbits
 215              		.align	2
 216              		.global	RAPP_PutPayload
 217              		.code	16
 218              		.thumb_func
 219              		.type	RAPP_PutPayload, %function
 220              	RAPP_PutPayload:
 221              	.LFB0:
  25:..\RNET/RApp.c ****     RAPP_BUF_TYPE(buf) = (uint8_t)type;
 222              		.loc 1 25 0
 223              		.cfi_startproc
 224              		@ args = 8, pretend = 0, frame = 0
 225              		@ frame_needed = 0, uses_anonymous_args = 0
 226              	.LVL24:
 227 0000 30B5     		push	{r4, r5, lr}
 228              		.cfi_def_cfa_offset 12
 229              		.cfi_offset 4, -12
 230              		.cfi_offset 5, -8
ARM GAS  C:\Users\Xwx47\AppData\Local\Temp\ccLk5NLb.s 			page 7


 231              		.cfi_offset 14, -4
 232 0002 83B0     		sub	sp, sp, #12
 233              		.cfi_def_cfa_offset 24
 234 0004 1D00     		movs	r5, r3
 235 0006 06AB     		add	r3, sp, #24
 236              	.LVL25:
 237 0008 1B78     		ldrb	r3, [r3]
 238              	.LVL26:
 239 000a 07AC     		add	r4, sp, #28
 240              	.LVL27:
 241 000c 2478     		ldrb	r4, [r4]
 242              	.LVL28:
  26:..\RNET/RApp.c ****     RAPP_BUF_SIZE(buf) = payloadSize;
 243              		.loc 1 26 0
 244 000e 8571     		strb	r5, [r0, #6]
  27:..\RNET/RApp.c ****     
 245              		.loc 1 27 0
 246 0010 C271     		strb	r2, [r0, #7]
  29:..\RNET/RApp.c ****                            dstAddr, flags);
 247              		.loc 1 29 0
 248 0012 0232     		adds	r2, r2, #2
 249              	.LVL29:
 250 0014 D2B2     		uxtb	r2, r2
 251 0016 0094     		str	r4, [sp]
 252              	.LVL30:
 253 0018 FFF7FEFF 		bl	RNWK_PutPayload
 254              	.LVL31:
  31:..\RNET/RApp.c **** 
 255              		.loc 1 31 0
 256 001c 03B0     		add	sp, sp, #12
 257              		@ sp needed
 258 001e 30BD     		pop	{r4, r5, pc}
 259              		.cfi_endproc
 260              	.LFE0:
 261              		.size	RAPP_PutPayload, .-RAPP_PutPayload
 262              		.section	.text.RAPP_SendPayloadDataBlock,"ax",%progbits
 263              		.align	2
 264              		.global	RAPP_SendPayloadDataBlock
 265              		.code	16
 266              		.thumb_func
 267              		.type	RAPP_SendPayloadDataBlock, %function
 268              	RAPP_SendPayloadDataBlock:
 269              	.LFB1:
  36:..\RNET/RApp.c ****     /* payload data buffer */
 270              		.loc 1 36 0
 271              		.cfi_startproc
 272              		@ args = 4, pretend = 0, frame = 48
 273              		@ frame_needed = 0, uses_anonymous_args = 0
 274              	.LVL32:
 275 0000 F0B5     		push	{r4, r5, r6, r7, lr}
 276              		.cfi_def_cfa_offset 20
 277              		.cfi_offset 4, -20
 278              		.cfi_offset 5, -16
 279              		.cfi_offset 6, -12
 280              		.cfi_offset 7, -8
 281              		.cfi_offset 14, -4
 282 0002 8FB0     		sub	sp, sp, #60
ARM GAS  C:\Users\Xwx47\AppData\Local\Temp\ccLk5NLb.s 			page 8


 283              		.cfi_def_cfa_offset 80
 284 0004 0400     		movs	r4, r0
 285 0006 0F00     		movs	r7, r1
 286 0008 0392     		str	r2, [sp, #12]
 287 000a 1E00     		movs	r6, r3
 288 000c 14AB     		add	r3, sp, #80
 289              	.LVL33:
 290 000e 1D78     		ldrb	r5, [r3]
  38:..\RNET/RApp.c ****     //size_t buf_size = sizeof(buf) / sizeof(buf[0]);
 291              		.loc 1 38 0
 292 0010 2222     		movs	r2, #34
 293              	.LVL34:
 294 0012 0021     		movs	r1, #0
 295              	.LVL35:
 296 0014 05A8     		add	r0, sp, #20
 297              	.LVL36:
 298 0016 FFF7FEFF 		bl	memset
 299              	.LVL37:
  43:..\RNET/RApp.c ****         return ERR_OVERFLOW;
 300              		.loc 1 43 0
 301 001a 1A2F     		cmp	r7, #26
 302 001c 13D8     		bhi	.L20
 303 001e 0023     		movs	r3, #0
 304 0020 06E0     		b	.L18
 305              	.LVL38:
 306              	.L19:
  48:..\RNET/RApp.c ****         appPayload++;
 307              		.loc 1 48 0
 308 0022 1A00     		movs	r2, r3
 309 0024 0832     		adds	r2, r2, #8
 310 0026 2078     		ldrb	r0, [r4]
 311 0028 05A9     		add	r1, sp, #20
 312 002a 8854     		strb	r0, [r1, r2]
  49:..\RNET/RApp.c ****         i++;
 313              		.loc 1 49 0
 314 002c 0134     		adds	r4, r4, #1
 315              	.LVL39:
  50:..\RNET/RApp.c ****     }
 316              		.loc 1 50 0
 317 002e 0133     		adds	r3, r3, #1
 318              	.LVL40:
 319              	.L18:
  47:..\RNET/RApp.c ****         RAPP_BUF_PAYLOAD_START(buf)[i] = *appPayload;
 320              		.loc 1 47 0
 321 0030 BB42     		cmp	r3, r7
 322 0032 F6DB     		blt	.L19
  53:..\RNET/RApp.c ****                           (RAPP_MSG_Type)msgType, dstAddr, flags);
 323              		.loc 1 53 0
 324 0034 0195     		str	r5, [sp, #4]
 325 0036 0096     		str	r6, [sp]
 326 0038 039B     		ldr	r3, [sp, #12]
 327              	.LVL41:
 328 003a 3A00     		movs	r2, r7
 329 003c 2221     		movs	r1, #34
 330 003e 05A8     		add	r0, sp, #20
 331 0040 FFF7FEFF 		bl	RAPP_PutPayload
 332              	.LVL42:
ARM GAS  C:\Users\Xwx47\AppData\Local\Temp\ccLk5NLb.s 			page 9


 333 0044 00E0     		b	.L17
 334              	.LVL43:
 335              	.L20:
  44:..\RNET/RApp.c ****     }
 336              		.loc 1 44 0
 337 0046 0420     		movs	r0, #4
 338              	.LVL44:
 339              	.L17:
  55:..\RNET/RApp.c **** 
 340              		.loc 1 55 0
 341 0048 0FB0     		add	sp, sp, #60
 342              		@ sp needed
 343              	.LVL45:
 344 004a F0BD     		pop	{r4, r5, r6, r7, pc}
 345              		.cfi_endproc
 346              	.LFE1:
 347              		.size	RAPP_SendPayloadDataBlock, .-RAPP_SendPayloadDataBlock
 348              		.section	.text.RAPP_SetMessageHandlerTable,"ax",%progbits
 349              		.align	2
 350              		.global	RAPP_SetMessageHandlerTable
 351              		.code	16
 352              		.thumb_func
 353              		.type	RAPP_SetMessageHandlerTable, %function
 354              	RAPP_SetMessageHandlerTable:
 355              	.LFB5:
 110:..\RNET/RApp.c **** 
 111:..\RNET/RApp.c **** uint8_t RAPP_SetMessageHandlerTable(const RAPP_MsgHandler *table)
 112:..\RNET/RApp.c **** {
 356              		.loc 1 112 0
 357              		.cfi_startproc
 358              		@ args = 0, pretend = 0, frame = 0
 359              		@ frame_needed = 0, uses_anonymous_args = 0
 360              		@ link register save eliminated.
 361              	.LVL46:
 113:..\RNET/RApp.c ****     RAPP_MsgHandlerTable = table;
 362              		.loc 1 113 0
 363 0000 014B     		ldr	r3, .L22
 364 0002 1860     		str	r0, [r3]
 114:..\RNET/RApp.c ****     return ERR_OK;
 115:..\RNET/RApp.c **** }
 365              		.loc 1 115 0
 366 0004 0020     		movs	r0, #0
 367              	.LVL47:
 368              		@ sp needed
 369 0006 7047     		bx	lr
 370              	.L23:
 371              		.align	2
 372              	.L22:
 373 0008 00000000 		.word	.LANCHOR0
 374              		.cfi_endproc
 375              	.LFE5:
 376              		.size	RAPP_SetMessageHandlerTable, .-RAPP_SetMessageHandlerTable
 377              		.section	.text.RAPP_GetThisNodeAddr,"ax",%progbits
 378              		.align	2
 379              		.global	RAPP_GetThisNodeAddr
 380              		.code	16
 381              		.thumb_func
ARM GAS  C:\Users\Xwx47\AppData\Local\Temp\ccLk5NLb.s 			page 10


 382              		.type	RAPP_GetThisNodeAddr, %function
 383              	RAPP_GetThisNodeAddr:
 384              	.LFB6:
 116:..\RNET/RApp.c **** 
 117:..\RNET/RApp.c **** RAPP_ShortAddrType RAPP_GetThisNodeAddr(void)
 118:..\RNET/RApp.c **** {
 385              		.loc 1 118 0
 386              		.cfi_startproc
 387              		@ args = 0, pretend = 0, frame = 0
 388              		@ frame_needed = 0, uses_anonymous_args = 0
 389 0000 10B5     		push	{r4, lr}
 390              		.cfi_def_cfa_offset 8
 391              		.cfi_offset 4, -8
 392              		.cfi_offset 14, -4
 119:..\RNET/RApp.c ****     return RNWK_GetThisNodeAddr();
 393              		.loc 1 119 0
 394 0002 FFF7FEFF 		bl	RNWK_GetThisNodeAddr
 395              	.LVL48:
 120:..\RNET/RApp.c **** }
 396              		.loc 1 120 0
 397              		@ sp needed
 398 0006 10BD     		pop	{r4, pc}
 399              		.cfi_endproc
 400              	.LFE6:
 401              		.size	RAPP_GetThisNodeAddr, .-RAPP_GetThisNodeAddr
 402              		.section	.text.RAPP_SetThisNodeAddr,"ax",%progbits
 403              		.align	2
 404              		.global	RAPP_SetThisNodeAddr
 405              		.code	16
 406              		.thumb_func
 407              		.type	RAPP_SetThisNodeAddr, %function
 408              	RAPP_SetThisNodeAddr:
 409              	.LFB7:
 121:..\RNET/RApp.c **** 
 122:..\RNET/RApp.c **** uint8_t RAPP_SetThisNodeAddr(RAPP_ShortAddrType addr)
 123:..\RNET/RApp.c **** {
 410              		.loc 1 123 0
 411              		.cfi_startproc
 412              		@ args = 0, pretend = 0, frame = 0
 413              		@ frame_needed = 0, uses_anonymous_args = 0
 414              	.LVL49:
 415 0000 10B5     		push	{r4, lr}
 416              		.cfi_def_cfa_offset 8
 417              		.cfi_offset 4, -8
 418              		.cfi_offset 14, -4
 124:..\RNET/RApp.c ****     return RNWK_SetThisNodeAddr(addr);
 419              		.loc 1 124 0
 420 0002 FFF7FEFF 		bl	RNWK_SetThisNodeAddr
 421              	.LVL50:
 125:..\RNET/RApp.c **** }
 422              		.loc 1 125 0
 423              		@ sp needed
 424 0006 10BD     		pop	{r4, pc}
 425              		.cfi_endproc
 426              	.LFE7:
 427              		.size	RAPP_SetThisNodeAddr, .-RAPP_SetThisNodeAddr
 428              		.section	.text.RAPP_SniffPacket,"ax",%progbits
ARM GAS  C:\Users\Xwx47\AppData\Local\Temp\ccLk5NLb.s 			page 11


 429              		.align	2
 430              		.global	RAPP_SniffPacket
 431              		.code	16
 432              		.thumb_func
 433              		.type	RAPP_SniffPacket, %function
 434              	RAPP_SniffPacket:
 435              	.LFB8:
 126:..\RNET/RApp.c **** 
 127:..\RNET/RApp.c **** void RAPP_SniffPacket(RAPP_PacketDesc *packet, bool isTx)
 128:..\RNET/RApp.c **** {
 436              		.loc 1 128 0
 437              		.cfi_startproc
 438              		@ args = 0, pretend = 0, frame = 0
 439              		@ frame_needed = 0, uses_anonymous_args = 0
 440              		@ link register save eliminated.
 441              	.LVL51:
 129:..\RNET/RApp.c ****     (void)packet;
 130:..\RNET/RApp.c ****     (void)isTx;
 131:..\RNET/RApp.c **** }
 442              		.loc 1 131 0
 443              		@ sp needed
 444 0000 7047     		bx	lr
 445              		.cfi_endproc
 446              	.LFE8:
 447              		.size	RAPP_SniffPacket, .-RAPP_SniffPacket
 448 0002 C046     		.section	.text.RAPP_Deinit,"ax",%progbits
 449              		.align	2
 450              		.global	RAPP_Deinit
 451              		.code	16
 452              		.thumb_func
 453              		.type	RAPP_Deinit, %function
 454              	RAPP_Deinit:
 455              	.LFB9:
 132:..\RNET/RApp.c **** 
 133:..\RNET/RApp.c **** void RAPP_Deinit(void)
 134:..\RNET/RApp.c **** {
 456              		.loc 1 134 0
 457              		.cfi_startproc
 458              		@ args = 0, pretend = 0, frame = 0
 459              		@ frame_needed = 0, uses_anonymous_args = 0
 460              		@ link register save eliminated.
 135:..\RNET/RApp.c ****     /* nothing needed */
 136:..\RNET/RApp.c **** }
 461              		.loc 1 136 0
 462              		@ sp needed
 463 0000 7047     		bx	lr
 464              		.cfi_endproc
 465              	.LFE9:
 466              		.size	RAPP_Deinit, .-RAPP_Deinit
 467 0002 C046     		.section	.text.RAPP_Init,"ax",%progbits
 468              		.align	2
 469              		.global	RAPP_Init
 470              		.code	16
 471              		.thumb_func
 472              		.type	RAPP_Init, %function
 473              	RAPP_Init:
 474              	.LFB10:
ARM GAS  C:\Users\Xwx47\AppData\Local\Temp\ccLk5NLb.s 			page 12


 137:..\RNET/RApp.c **** 
 138:..\RNET/RApp.c **** void RAPP_Init(void)
 139:..\RNET/RApp.c **** {
 475              		.loc 1 139 0
 476              		.cfi_startproc
 477              		@ args = 0, pretend = 0, frame = 0
 478              		@ frame_needed = 0, uses_anonymous_args = 0
 479 0000 10B5     		push	{r4, lr}
 480              		.cfi_def_cfa_offset 8
 481              		.cfi_offset 4, -8
 482              		.cfi_offset 14, -4
 140:..\RNET/RApp.c ****     (void)RNWK_SetAppOnPacketRxCallback(RAPP_OnPacketRx);
 483              		.loc 1 140 0
 484 0002 0348     		ldr	r0, .L29
 485 0004 FFF7FEFF 		bl	RNWK_SetAppOnPacketRxCallback
 486              	.LVL52:
 141:..\RNET/RApp.c ****     RAPP_MsgHandlerTable = NULL;
 487              		.loc 1 141 0
 488 0008 0022     		movs	r2, #0
 489 000a 024B     		ldr	r3, .L29+4
 490 000c 1A60     		str	r2, [r3]
 142:..\RNET/RApp.c **** }
 491              		.loc 1 142 0
 492              		@ sp needed
 493 000e 10BD     		pop	{r4, pc}
 494              	.L30:
 495              		.align	2
 496              	.L29:
 497 0010 00000000 		.word	RAPP_OnPacketRx
 498 0014 00000000 		.word	.LANCHOR0
 499              		.cfi_endproc
 500              	.LFE10:
 501              		.size	RAPP_Init, .-RAPP_Init
 502              		.bss
 503              		.align	2
 504              		.set	.LANCHOR0,. + 0
 505              		.type	RAPP_MsgHandlerTable, %object
 506              		.size	RAPP_MsgHandlerTable, 4
 507              	RAPP_MsgHandlerTable:
 508 0000 00000000 		.space	4
 509              		.text
 510              	.Letext0:
 511              		.file 2 "c:\\program files (x86)\\cypress\\psoc creator\\4.1\\psoc creator\\import\\gnu\\arm\\5.4.
 512              		.file 3 "c:\\program files (x86)\\cypress\\psoc creator\\4.1\\psoc creator\\import\\gnu\\arm\\5.4.
 513              		.file 4 "c:\\program files (x86)\\cypress\\psoc creator\\4.1\\psoc creator\\import\\gnu\\arm\\5.4.
 514              		.file 5 "./RNet_AppConfig.h"
 515              		.file 6 "Generated_Source\\PSoC4/RF1_REGS.h"
 516              		.file 7 "..\\RNET\\RPHY.h"
 517              		.file 8 "..\\RNET\\RNWK.h"
 518              		.file 9 "..\\RNET\\RApp.h"