ARM GAS  C:\Users\Xwx47\AppData\Local\Temp\ccWzslpG.s 			page 1


   1              		.syntax unified
   2              		.cpu cortex-m0
   3              		.fpu softvfp
   4              		.eabi_attribute 20, 1
   5              		.eabi_attribute 21, 1
   6              		.eabi_attribute 23, 3
   7              		.eabi_attribute 24, 1
   8              		.eabi_attribute 25, 1
   9              		.eabi_attribute 26, 1
  10              		.eabi_attribute 30, 1
  11              		.eabi_attribute 34, 0
  12              		.eabi_attribute 18, 4
  13              		.thumb
  14              		.syntax unified
  15              		.file	"RMAC.c"
  16              		.text
  17              	.Ltext0:
  18              		.cfi_sections	.debug_frame
  19              		.section	.text.util_strcat,"ax",%progbits
  20              		.align	2
  21              		.code	16
  22              		.thumb_func
  23              		.type	util_strcat, %function
  24              	util_strcat:
  25              	.LFB0:
  26              		.file 1 "..\\RNET\\RMAC.c"
   1:..\RNET/RMAC.c **** /**
   2:..\RNET/RMAC.c ****  * \file
   3:..\RNET/RMAC.c ****  * \brief This is the implementation of the Radio MAC part.
   4:..\RNET/RMAC.c ****  * \author (c) 2013-2014 Erich Styger, http://mcuoneclipse.com/
   5:..\RNET/RMAC.c ****  * \note MIT License (http://opensource.org/licenses/mit-license.html), see
   6:..\RNET/RMAC.c ****  * 'RNet_License.txt'
   7:..\RNET/RMAC.c ****  *
   8:..\RNET/RMAC.c ****  * This module encapsulates the Media Access of network stack.
   9:..\RNET/RMAC.c ****  */
  10:..\RNET/RMAC.c **** 
  11:..\RNET/RMAC.c **** #include "RMAC.h"
  12:..\RNET/RMAC.c **** #include "RNWK.h"
  13:..\RNET/RMAC.c **** #include "RNetConf.h"
  14:..\RNET/RMAC.c **** #include "RPHY.h"
  15:..\RNET/RMAC.c **** 
  16:..\RNET/RMAC.c **** static uint8_t RMAC_SeqNr = 0;
  17:..\RNET/RMAC.c **** static uint8_t RMAC_ExpectedAckSeqNr;
  18:..\RNET/RMAC.c **** 
  19:..\RNET/RMAC.c **** static void util_strcat(uint8_t *dst, size_t dstSize, const unsigned char *src)
  20:..\RNET/RMAC.c **** {
  27              		.loc 1 20 0
  28              		.cfi_startproc
  29              		@ args = 0, pretend = 0, frame = 0
  30              		@ frame_needed = 0, uses_anonymous_args = 0
  31              		@ link register save eliminated.
  32              	.LVL0:
  21:..\RNET/RMAC.c ****     dstSize--; /* for zero byte */
  33              		.loc 1 21 0
  34 0000 0139     		subs	r1, r1, #1
  35              	.LVL1:
  22:..\RNET/RMAC.c ****     /* point to the end of the source */
ARM GAS  C:\Users\Xwx47\AppData\Local\Temp\ccWzslpG.s 			page 2


  23:..\RNET/RMAC.c ****     while (dstSize > 0 && *dst != '\0') {
  36              		.loc 1 23 0
  37 0002 01E0     		b	.L2
  38              	.L4:
  24:..\RNET/RMAC.c ****         dst++;
  39              		.loc 1 24 0
  40 0004 0130     		adds	r0, r0, #1
  41              	.LVL2:
  25:..\RNET/RMAC.c ****         dstSize--;
  42              		.loc 1 25 0
  43 0006 0139     		subs	r1, r1, #1
  44              	.LVL3:
  45              	.L2:
  23:..\RNET/RMAC.c ****         dst++;
  46              		.loc 1 23 0
  47 0008 0029     		cmp	r1, #0
  48 000a 07D0     		beq	.L3
  23:..\RNET/RMAC.c ****         dst++;
  49              		.loc 1 23 0 is_stmt 0 discriminator 1
  50 000c 0378     		ldrb	r3, [r0]
  51 000e 002B     		cmp	r3, #0
  52 0010 F8D1     		bne	.L4
  53 0012 03E0     		b	.L3
  54              	.L6:
  55              	.LVL4:
  26:..\RNET/RMAC.c ****     }
  27:..\RNET/RMAC.c ****     /* copy the src in the destination */
  28:..\RNET/RMAC.c ****     while (dstSize > 0 && *src != '\0') {
  29:..\RNET/RMAC.c ****         *dst++ = *src++;
  56              		.loc 1 29 0 is_stmt 1
  57 0014 0132     		adds	r2, r2, #1
  58              	.LVL5:
  59 0016 0370     		strb	r3, [r0]
  30:..\RNET/RMAC.c ****         dstSize--;
  60              		.loc 1 30 0
  61 0018 0139     		subs	r1, r1, #1
  62              	.LVL6:
  29:..\RNET/RMAC.c ****         dstSize--;
  63              		.loc 1 29 0
  64 001a 0130     		adds	r0, r0, #1
  65              	.LVL7:
  66              	.L3:
  28:..\RNET/RMAC.c ****         *dst++ = *src++;
  67              		.loc 1 28 0
  68 001c 0029     		cmp	r1, #0
  69 001e 02D0     		beq	.L5
  28:..\RNET/RMAC.c ****         *dst++ = *src++;
  70              		.loc 1 28 0 is_stmt 0 discriminator 1
  71 0020 1378     		ldrb	r3, [r2]
  72 0022 002B     		cmp	r3, #0
  73 0024 F6D1     		bne	.L6
  74              	.L5:
  31:..\RNET/RMAC.c ****     }
  32:..\RNET/RMAC.c ****     /* terminate the string */
  33:..\RNET/RMAC.c ****     *dst = '\0';
  75              		.loc 1 33 0 is_stmt 1
  76 0026 0023     		movs	r3, #0
ARM GAS  C:\Users\Xwx47\AppData\Local\Temp\ccWzslpG.s 			page 3


  77 0028 0370     		strb	r3, [r0]
  34:..\RNET/RMAC.c **** }
  78              		.loc 1 34 0
  79              		@ sp needed
  80 002a 7047     		bx	lr
  81              		.cfi_endproc
  82              	.LFE0:
  83              		.size	util_strcat, .-util_strcat
  84              		.section	.text.util_chcat,"ax",%progbits
  85              		.align	2
  86              		.code	16
  87              		.thumb_func
  88              		.type	util_chcat, %function
  89              	util_chcat:
  90              	.LFB1:
  35:..\RNET/RMAC.c **** 
  36:..\RNET/RMAC.c **** static void util_chcat(uint8_t *dst, size_t dstSize, uint8_t ch)
  37:..\RNET/RMAC.c **** {
  91              		.loc 1 37 0
  92              		.cfi_startproc
  93              		@ args = 0, pretend = 0, frame = 0
  94              		@ frame_needed = 0, uses_anonymous_args = 0
  95              		@ link register save eliminated.
  96              	.LVL8:
  38:..\RNET/RMAC.c ****     dstSize--; /* for zero byte */
  97              		.loc 1 38 0
  98 0000 0139     		subs	r1, r1, #1
  99              	.LVL9:
  39:..\RNET/RMAC.c ****     /* point to the end of the source */
  40:..\RNET/RMAC.c ****     while (dstSize > 0 && *dst != '\0') {
 100              		.loc 1 40 0
 101 0002 01E0     		b	.L8
 102              	.L10:
  41:..\RNET/RMAC.c ****         dst++;
 103              		.loc 1 41 0
 104 0004 0130     		adds	r0, r0, #1
 105              	.LVL10:
  42:..\RNET/RMAC.c ****         dstSize--;
 106              		.loc 1 42 0
 107 0006 0139     		subs	r1, r1, #1
 108              	.LVL11:
 109              	.L8:
  40:..\RNET/RMAC.c ****         dst++;
 110              		.loc 1 40 0
 111 0008 0029     		cmp	r1, #0
 112 000a 02D0     		beq	.L9
  40:..\RNET/RMAC.c ****         dst++;
 113              		.loc 1 40 0 is_stmt 0 discriminator 1
 114 000c 0378     		ldrb	r3, [r0]
 115 000e 002B     		cmp	r3, #0
 116 0010 F8D1     		bne	.L10
 117              	.L9:
  43:..\RNET/RMAC.c ****     }
  44:..\RNET/RMAC.c ****     /* copy the ch in the destination */
  45:..\RNET/RMAC.c ****     if (dstSize > 0) {
 118              		.loc 1 45 0 is_stmt 1
 119 0012 0029     		cmp	r1, #0
ARM GAS  C:\Users\Xwx47\AppData\Local\Temp\ccWzslpG.s 			page 4


 120 0014 01D0     		beq	.L11
 121              	.LVL12:
  46:..\RNET/RMAC.c ****         *dst++ = ch;
 122              		.loc 1 46 0
 123 0016 0270     		strb	r2, [r0]
 124 0018 0130     		adds	r0, r0, #1
 125              	.LVL13:
 126              	.L11:
  47:..\RNET/RMAC.c ****     }
  48:..\RNET/RMAC.c ****     /* terminate the string */
  49:..\RNET/RMAC.c ****     *dst = '\0';
 127              		.loc 1 49 0
 128 001a 0023     		movs	r3, #0
 129 001c 0370     		strb	r3, [r0]
  50:..\RNET/RMAC.c **** }
 130              		.loc 1 50 0
 131              		@ sp needed
 132 001e 7047     		bx	lr
 133              		.cfi_endproc
 134              	.LFE1:
 135              		.size	util_chcat, .-util_chcat
 136              		.section	.text.RMAC_PutPayload,"ax",%progbits
 137              		.align	2
 138              		.global	RMAC_PutPayload
 139              		.code	16
 140              		.thumb_func
 141              		.type	RMAC_PutPayload, %function
 142              	RMAC_PutPayload:
 143              	.LFB2:
  51:..\RNET/RMAC.c **** 
  52:..\RNET/RMAC.c **** uint8_t RMAC_PutPayload(uint8_t *buf, size_t bufSize, uint8_t payloadSize,
  53:..\RNET/RMAC.c ****                         RPHY_FlagsType flags)
  54:..\RNET/RMAC.c **** {
 144              		.loc 1 54 0
 145              		.cfi_startproc
 146              		@ args = 0, pretend = 0, frame = 0
 147              		@ frame_needed = 0, uses_anonymous_args = 0
 148              	.LVL14:
 149 0000 70B5     		push	{r4, r5, r6, lr}
 150              		.cfi_def_cfa_offset 16
 151              		.cfi_offset 4, -16
 152              		.cfi_offset 5, -12
 153              		.cfi_offset 6, -8
 154              		.cfi_offset 14, -4
  55:..\RNET/RMAC.c ****     if (flags & RPHY_PACKET_FLAGS_REQ_ACK) {
 155              		.loc 1 55 0
 156 0002 9C07     		lsls	r4, r3, #30
 157 0004 02D5     		bpl	.L13
  56:..\RNET/RMAC.c ****         RMAC_BUF_TYPE(buf) = (uint8_t)((uint8_t)RMAC_MSG_TYPE_DATA |
 158              		.loc 1 56 0
 159 0006 8124     		movs	r4, #129
 160 0008 8470     		strb	r4, [r0, #2]
 161 000a 01E0     		b	.L14
 162              	.L13:
  57:..\RNET/RMAC.c ****                                        (uint8_t)RMAC_MSG_TYPE_REQ_ACK);
  58:..\RNET/RMAC.c ****     } else {
  59:..\RNET/RMAC.c ****         RMAC_BUF_TYPE(buf) = (uint8_t)RMAC_MSG_TYPE_DATA;
ARM GAS  C:\Users\Xwx47\AppData\Local\Temp\ccWzslpG.s 			page 5


 163              		.loc 1 59 0
 164 000c 0124     		movs	r4, #1
 165 000e 8470     		strb	r4, [r0, #2]
 166              	.L14:
  60:..\RNET/RMAC.c ****     }
  61:..\RNET/RMAC.c ****     
  62:..\RNET/RMAC.c ****     RMAC_ExpectedAckSeqNr = RMAC_SeqNr;
 167              		.loc 1 62 0
 168 0010 054D     		ldr	r5, .L15
 169 0012 2C78     		ldrb	r4, [r5]
 170 0014 6C70     		strb	r4, [r5, #1]
  63:..\RNET/RMAC.c ****     RMAC_BUF_SEQN(buf) = RMAC_SeqNr++;
 171              		.loc 1 63 0
 172 0016 661C     		adds	r6, r4, #1
 173 0018 2E70     		strb	r6, [r5]
 174 001a C470     		strb	r4, [r0, #3]
  64:..\RNET/RMAC.c ****     
  65:..\RNET/RMAC.c ****     return RPHY_PutPayload(buf, bufSize, payloadSize + RMAC_HEADER_SIZE, flags);
 175              		.loc 1 65 0
 176 001c 0232     		adds	r2, r2, #2
 177              	.LVL15:
 178 001e D2B2     		uxtb	r2, r2
 179 0020 FFF7FEFF 		bl	RPHY_PutPayload
 180              	.LVL16:
  66:..\RNET/RMAC.c **** }
 181              		.loc 1 66 0
 182              		@ sp needed
 183 0024 70BD     		pop	{r4, r5, r6, pc}
 184              	.L16:
 185 0026 C046     		.align	2
 186              	.L15:
 187 0028 00000000 		.word	.LANCHOR0
 188              		.cfi_endproc
 189              	.LFE2:
 190              		.size	RMAC_PutPayload, .-RMAC_PutPayload
 191              		.section	.text.RMAC_OnPacketRx,"ax",%progbits
 192              		.align	2
 193              		.global	RMAC_OnPacketRx
 194              		.code	16
 195              		.thumb_func
 196              		.type	RMAC_OnPacketRx, %function
 197              	RMAC_OnPacketRx:
 198              	.LFB3:
  67:..\RNET/RMAC.c **** 
  68:..\RNET/RMAC.c **** uint8_t RMAC_OnPacketRx(RPHY_PacketDesc *packet)
  69:..\RNET/RMAC.c **** {
 199              		.loc 1 69 0
 200              		.cfi_startproc
 201              		@ args = 0, pretend = 0, frame = 0
 202              		@ frame_needed = 0, uses_anonymous_args = 0
 203              	.LVL17:
 204 0000 10B5     		push	{r4, lr}
 205              		.cfi_def_cfa_offset 8
 206              		.cfi_offset 4, -8
 207              		.cfi_offset 14, -4
  70:..\RNET/RMAC.c ****     /* pass data packet up the stack */
  71:..\RNET/RMAC.c ****     return RNWK_OnPacketRx(packet);
ARM GAS  C:\Users\Xwx47\AppData\Local\Temp\ccWzslpG.s 			page 6


 208              		.loc 1 71 0
 209 0002 FFF7FEFF 		bl	RNWK_OnPacketRx
 210              	.LVL18:
  72:..\RNET/RMAC.c **** }
 211              		.loc 1 72 0
 212              		@ sp needed
 213 0006 10BD     		pop	{r4, pc}
 214              		.cfi_endproc
 215              	.LFE3:
 216              		.size	RMAC_OnPacketRx, .-RMAC_OnPacketRx
 217              		.section	.text.RMAC_SendACK,"ax",%progbits
 218              		.align	2
 219              		.global	RMAC_SendACK
 220              		.code	16
 221              		.thumb_func
 222              		.type	RMAC_SendACK, %function
 223              	RMAC_SendACK:
 224              	.LFB4:
  73:..\RNET/RMAC.c **** 
  74:..\RNET/RMAC.c **** uint8_t RMAC_SendACK(RPHY_PacketDesc *rxPacket, RPHY_PacketDesc *ackPacket)
  75:..\RNET/RMAC.c **** {
 225              		.loc 1 75 0
 226              		.cfi_startproc
 227              		@ args = 0, pretend = 0, frame = 0
 228              		@ frame_needed = 0, uses_anonymous_args = 0
 229              	.LVL19:
 230 0000 10B5     		push	{r4, lr}
 231              		.cfi_def_cfa_offset 8
 232              		.cfi_offset 4, -8
 233              		.cfi_offset 14, -4
 234 0002 0B00     		movs	r3, r1
  76:..\RNET/RMAC.c ****     /* set type to ack */
  77:..\RNET/RMAC.c ****     RMAC_BUF_TYPE(ackPacket->phyData) = (uint8_t)RMAC_MSG_TYPE_ACK;
 235              		.loc 1 77 0
 236 0004 0222     		movs	r2, #2
 237 0006 4968     		ldr	r1, [r1, #4]
 238              	.LVL20:
 239 0008 8A70     		strb	r2, [r1, #2]
  78:..\RNET/RMAC.c ****     RMAC_BUF_SEQN(ackPacket->phyData) = RMAC_BUF_SEQN(rxPacket->phyData);
 240              		.loc 1 78 0
 241 000a 4268     		ldr	r2, [r0, #4]
 242 000c D278     		ldrb	r2, [r2, #3]
 243 000e 5968     		ldr	r1, [r3, #4]
 244 0010 CA70     		strb	r2, [r1, #3]
  79:..\RNET/RMAC.c ****     
  80:..\RNET/RMAC.c ****     /* use same sequence number as in the received package, so no change */
  81:..\RNET/RMAC.c ****     return RPHY_PutPayload(ackPacket->phyData, ackPacket->phySize,
 245              		.loc 1 81 0
 246 0012 5978     		ldrb	r1, [r3, #1]
 247 0014 5868     		ldr	r0, [r3, #4]
 248              	.LVL21:
 249 0016 0023     		movs	r3, #0
 250              	.LVL22:
 251 0018 0422     		movs	r2, #4
 252 001a FFF7FEFF 		bl	RPHY_PutPayload
 253              	.LVL23:
  82:..\RNET/RMAC.c ****                            RMAC_HEADER_SIZE + RNWK_HEADER_SIZE,
ARM GAS  C:\Users\Xwx47\AppData\Local\Temp\ccWzslpG.s 			page 7


  83:..\RNET/RMAC.c ****                            RPHY_PACKET_FLAGS_NONE);
  84:..\RNET/RMAC.c **** }
 254              		.loc 1 84 0
 255              		@ sp needed
 256 001e 10BD     		pop	{r4, pc}
 257              		.cfi_endproc
 258              	.LFE4:
 259              		.size	RMAC_SendACK, .-RMAC_SendACK
 260              		.section	.text.RMAC_GetType,"ax",%progbits
 261              		.align	2
 262              		.global	RMAC_GetType
 263              		.code	16
 264              		.thumb_func
 265              		.type	RMAC_GetType, %function
 266              	RMAC_GetType:
 267              	.LFB5:
  85:..\RNET/RMAC.c **** 
  86:..\RNET/RMAC.c **** RMAC_MsgType RMAC_GetType(uint8_t *buf, size_t bufSize)
  87:..\RNET/RMAC.c **** {
 268              		.loc 1 87 0
 269              		.cfi_startproc
 270              		@ args = 0, pretend = 0, frame = 0
 271              		@ frame_needed = 0, uses_anonymous_args = 0
 272              		@ link register save eliminated.
 273              	.LVL24:
  88:..\RNET/RMAC.c ****     (void)bufSize; /* not used */
  89:..\RNET/RMAC.c ****     
  90:..\RNET/RMAC.c ****     return (RMAC_MsgType)RMAC_BUF_TYPE(buf);
 274              		.loc 1 90 0
 275 0000 8078     		ldrb	r0, [r0, #2]
 276              	.LVL25:
  91:..\RNET/RMAC.c **** }
 277              		.loc 1 91 0
 278              		@ sp needed
 279 0002 7047     		bx	lr
 280              		.cfi_endproc
 281              	.LFE5:
 282              		.size	RMAC_GetType, .-RMAC_GetType
 283              		.section	.text.RMAC_IsExpectedACK,"ax",%progbits
 284              		.align	2
 285              		.global	RMAC_IsExpectedACK
 286              		.code	16
 287              		.thumb_func
 288              		.type	RMAC_IsExpectedACK, %function
 289              	RMAC_IsExpectedACK:
 290              	.LFB6:
  92:..\RNET/RMAC.c **** 
  93:..\RNET/RMAC.c **** bool RMAC_IsExpectedACK(uint8_t *buf, size_t bufSize)
  94:..\RNET/RMAC.c **** {
 291              		.loc 1 94 0
 292              		.cfi_startproc
 293              		@ args = 0, pretend = 0, frame = 0
 294              		@ frame_needed = 0, uses_anonymous_args = 0
 295              		@ link register save eliminated.
 296              	.LVL26:
  95:..\RNET/RMAC.c ****     (void)bufSize; /* not used */
  96:..\RNET/RMAC.c ****     
ARM GAS  C:\Users\Xwx47\AppData\Local\Temp\ccWzslpG.s 			page 8


  97:..\RNET/RMAC.c ****     return RMAC_BUF_SEQN(buf) == RMAC_ExpectedAckSeqNr;
 297              		.loc 1 97 0
 298 0000 C378     		ldrb	r3, [r0, #3]
 299 0002 034A     		ldr	r2, .L21
 300 0004 5078     		ldrb	r0, [r2, #1]
 301              	.LVL27:
 302 0006 181A     		subs	r0, r3, r0
 303 0008 4342     		rsbs	r3, r0, #0
 304 000a 5841     		adcs	r0, r0, r3
 305 000c C0B2     		uxtb	r0, r0
  98:..\RNET/RMAC.c **** }
 306              		.loc 1 98 0
 307              		@ sp needed
 308 000e 7047     		bx	lr
 309              	.L22:
 310              		.align	2
 311              	.L21:
 312 0010 00000000 		.word	.LANCHOR0
 313              		.cfi_endproc
 314              	.LFE6:
 315              		.size	RMAC_IsExpectedACK, .-RMAC_IsExpectedACK
 316              		.section	.text.RMAC_SniffPacket,"ax",%progbits
 317              		.align	2
 318              		.global	RMAC_SniffPacket
 319              		.code	16
 320              		.thumb_func
 321              		.type	RMAC_SniffPacket, %function
 322              	RMAC_SniffPacket:
 323              	.LFB7:
  99:..\RNET/RMAC.c **** 
 100:..\RNET/RMAC.c **** void RMAC_SniffPacket(RPHY_PacketDesc *packet, bool isTx)
 101:..\RNET/RMAC.c **** {
 324              		.loc 1 101 0
 325              		.cfi_startproc
 326              		@ args = 0, pretend = 0, frame = 0
 327              		@ frame_needed = 0, uses_anonymous_args = 0
 328              	.LVL28:
 329 0000 10B5     		push	{r4, lr}
 330              		.cfi_def_cfa_offset 8
 331              		.cfi_offset 4, -8
 332              		.cfi_offset 14, -4
 102:..\RNET/RMAC.c ****     RNWK_SniffPacket(packet, isTx);
 333              		.loc 1 102 0
 334 0002 FFF7FEFF 		bl	RNWK_SniffPacket
 335              	.LVL29:
 103:..\RNET/RMAC.c **** }
 336              		.loc 1 103 0
 337              		@ sp needed
 338 0006 10BD     		pop	{r4, pc}
 339              		.cfi_endproc
 340              	.LFE7:
 341              		.size	RMAC_SniffPacket, .-RMAC_SniffPacket
 342              		.section	.text.RMAC_DecodeType,"ax",%progbits
 343              		.align	2
 344              		.global	RMAC_DecodeType
 345              		.code	16
 346              		.thumb_func
ARM GAS  C:\Users\Xwx47\AppData\Local\Temp\ccWzslpG.s 			page 9


 347              		.type	RMAC_DecodeType, %function
 348              	RMAC_DecodeType:
 349              	.LFB8:
 104:..\RNET/RMAC.c **** 
 105:..\RNET/RMAC.c **** void RMAC_DecodeType(uint8_t *buf, size_t bufSize, RPHY_PacketDesc *packet)
 106:..\RNET/RMAC.c **** {
 350              		.loc 1 106 0
 351              		.cfi_startproc
 352              		@ args = 0, pretend = 0, frame = 0
 353              		@ frame_needed = 0, uses_anonymous_args = 0
 354              	.LVL30:
 355 0000 70B5     		push	{r4, r5, r6, lr}
 356              		.cfi_def_cfa_offset 16
 357              		.cfi_offset 4, -16
 358              		.cfi_offset 5, -12
 359              		.cfi_offset 6, -8
 360              		.cfi_offset 14, -4
 361 0002 0400     		movs	r4, r0
 362 0004 0D00     		movs	r5, r1
 363              	.LVL31:
 107:..\RNET/RMAC.c ****     RMAC_MsgType type;
 108:..\RNET/RMAC.c ****     bool first = true;
 109:..\RNET/RMAC.c **** 
 110:..\RNET/RMAC.c ****     type = (RMAC_MsgType)RMAC_BUF_TYPE(packet->phyData);
 364              		.loc 1 110 0
 365 0006 5368     		ldr	r3, [r2, #4]
 366 0008 9E78     		ldrb	r6, [r3, #2]
 367              	.LVL32:
 111:..\RNET/RMAC.c ****     buf[0] = '\0';
 368              		.loc 1 111 0
 369 000a 0023     		movs	r3, #0
 370 000c 0370     		strb	r3, [r0]
 112:..\RNET/RMAC.c ****     util_chcat(buf, bufSize, '(');
 371              		.loc 1 112 0
 372 000e 2822     		movs	r2, #40
 373              	.LVL33:
 374 0010 FFF7FEFF 		bl	util_chcat
 375              	.LVL34:
 113:..\RNET/RMAC.c ****     
 114:..\RNET/RMAC.c ****     if ((uint8_t)type & (uint8_t)RMAC_MSG_TYPE_REQ_ACK) {
 376              		.loc 1 114 0
 377 0014 73B2     		sxtb	r3, r6
 378 0016 002B     		cmp	r3, #0
 379 0018 06DA     		bge	.L25
 115:..\RNET/RMAC.c ****         util_strcat(buf, bufSize, (unsigned char *)"RACK");
 380              		.loc 1 115 0
 381 001a 1B4A     		ldr	r2, .L32
 382 001c 2900     		movs	r1, r5
 383 001e 2000     		movs	r0, r4
 384 0020 FFF7FEFF 		bl	util_strcat
 385              	.LVL35:
 116:..\RNET/RMAC.c ****         first = true;
 386              		.loc 1 116 0
 387 0024 0123     		movs	r3, #1
 388 0026 05E0     		b	.L26
 389              	.L25:
 117:..\RNET/RMAC.c ****     } else {
ARM GAS  C:\Users\Xwx47\AppData\Local\Temp\ccWzslpG.s 			page 10


 118:..\RNET/RMAC.c ****         util_strcat(buf, bufSize, (unsigned char *)"NACK");
 390              		.loc 1 118 0
 391 0028 184A     		ldr	r2, .L32+4
 392 002a 2900     		movs	r1, r5
 393 002c 2000     		movs	r0, r4
 394 002e FFF7FEFF 		bl	util_strcat
 395              	.LVL36:
 119:..\RNET/RMAC.c ****         first = false;
 396              		.loc 1 119 0
 397 0032 0023     		movs	r3, #0
 398              	.LVL37:
 399              	.L26:
 120:..\RNET/RMAC.c ****     }
 121:..\RNET/RMAC.c ****     if ((uint8_t)type & (uint8_t)RMAC_MSG_TYPE_DATA) {
 400              		.loc 1 121 0
 401 0034 F207     		lsls	r2, r6, #31
 402 0036 0CD5     		bpl	.L27
 122:..\RNET/RMAC.c ****         if (!first) {
 403              		.loc 1 122 0
 404 0038 002B     		cmp	r3, #0
 405 003a 04D1     		bne	.L28
 123:..\RNET/RMAC.c ****             util_chcat(buf, bufSize, '|');
 406              		.loc 1 123 0
 407 003c 7C22     		movs	r2, #124
 408 003e 2900     		movs	r1, r5
 409 0040 2000     		movs	r0, r4
 410 0042 FFF7FEFF 		bl	util_chcat
 411              	.LVL38:
 412              	.L28:
 124:..\RNET/RMAC.c ****         }
 125:..\RNET/RMAC.c ****         util_strcat(buf, bufSize, (unsigned char *)"DATA");
 413              		.loc 1 125 0
 414 0046 124A     		ldr	r2, .L32+8
 415 0048 2900     		movs	r1, r5
 416 004a 2000     		movs	r0, r4
 417 004c FFF7FEFF 		bl	util_strcat
 418              	.LVL39:
 126:..\RNET/RMAC.c ****         first = false;
 419              		.loc 1 126 0
 420 0050 0023     		movs	r3, #0
 421              	.LVL40:
 422              	.L27:
 127:..\RNET/RMAC.c ****     }
 128:..\RNET/RMAC.c ****     if ((uint8_t)type & (uint8_t)RMAC_MSG_TYPE_ACK) {
 423              		.loc 1 128 0
 424 0052 B207     		lsls	r2, r6, #30
 425 0054 0BD5     		bpl	.L29
 129:..\RNET/RMAC.c ****         if (!first) {
 426              		.loc 1 129 0
 427 0056 002B     		cmp	r3, #0
 428 0058 04D1     		bne	.L30
 130:..\RNET/RMAC.c ****             util_chcat(buf, bufSize, '|');
 429              		.loc 1 130 0
 430 005a 7C22     		movs	r2, #124
 431 005c 2900     		movs	r1, r5
 432 005e 2000     		movs	r0, r4
 433 0060 FFF7FEFF 		bl	util_chcat
ARM GAS  C:\Users\Xwx47\AppData\Local\Temp\ccWzslpG.s 			page 11


 434              	.LVL41:
 435              	.L30:
 131:..\RNET/RMAC.c ****         }
 132:..\RNET/RMAC.c ****         util_strcat(buf, bufSize, (unsigned char *)"ACK");
 436              		.loc 1 132 0
 437 0064 0B4A     		ldr	r2, .L32+12
 438 0066 2900     		movs	r1, r5
 439 0068 2000     		movs	r0, r4
 440 006a FFF7FEFF 		bl	util_strcat
 441              	.LVL42:
 442              	.L29:
 133:..\RNET/RMAC.c ****     }
 134:..\RNET/RMAC.c ****     if ((uint8_t)type & (uint8_t)RMAC_MSG_TYPE_CMD) {
 443              		.loc 1 134 0
 444 006e 7307     		lsls	r3, r6, #29
 445 0070 04D5     		bpl	.L31
 135:..\RNET/RMAC.c ****         util_strcat(buf, bufSize, (unsigned char *)"CMD");
 446              		.loc 1 135 0
 447 0072 094A     		ldr	r2, .L32+16
 448 0074 2900     		movs	r1, r5
 449 0076 2000     		movs	r0, r4
 450 0078 FFF7FEFF 		bl	util_strcat
 451              	.LVL43:
 452              	.L31:
 136:..\RNET/RMAC.c ****     }
 137:..\RNET/RMAC.c ****     util_chcat(buf, bufSize, ')');
 453              		.loc 1 137 0
 454 007c 2922     		movs	r2, #41
 455 007e 2900     		movs	r1, r5
 456 0080 2000     		movs	r0, r4
 457 0082 FFF7FEFF 		bl	util_chcat
 458              	.LVL44:
 138:..\RNET/RMAC.c **** }
 459              		.loc 1 138 0
 460              		@ sp needed
 461              	.LVL45:
 462              	.LVL46:
 463              	.LVL47:
 464 0086 70BD     		pop	{r4, r5, r6, pc}
 465              	.L33:
 466              		.align	2
 467              	.L32:
 468 0088 00000000 		.word	.LC2
 469 008c 08000000 		.word	.LC4
 470 0090 10000000 		.word	.LC6
 471 0094 18000000 		.word	.LC8
 472 0098 1C000000 		.word	.LC10
 473              		.cfi_endproc
 474              	.LFE8:
 475              		.size	RMAC_DecodeType, .-RMAC_DecodeType
 476              		.section	.text.RMAC_Deinit,"ax",%progbits
 477              		.align	2
 478              		.global	RMAC_Deinit
 479              		.code	16
 480              		.thumb_func
 481              		.type	RMAC_Deinit, %function
 482              	RMAC_Deinit:
ARM GAS  C:\Users\Xwx47\AppData\Local\Temp\ccWzslpG.s 			page 12


 483              	.LFB9:
 139:..\RNET/RMAC.c **** 
 140:..\RNET/RMAC.c **** void RMAC_Deinit(void)
 141:..\RNET/RMAC.c **** {
 484              		.loc 1 141 0
 485              		.cfi_startproc
 486              		@ args = 0, pretend = 0, frame = 0
 487              		@ frame_needed = 0, uses_anonymous_args = 0
 488              		@ link register save eliminated.
 142:..\RNET/RMAC.c ****     /* nothing needed */
 143:..\RNET/RMAC.c **** }
 489              		.loc 1 143 0
 490              		@ sp needed
 491 0000 7047     		bx	lr
 492              		.cfi_endproc
 493              	.LFE9:
 494              		.size	RMAC_Deinit, .-RMAC_Deinit
 495 0002 C046     		.section	.text.RMAC_Init,"ax",%progbits
 496              		.align	2
 497              		.global	RMAC_Init
 498              		.code	16
 499              		.thumb_func
 500              		.type	RMAC_Init, %function
 501              	RMAC_Init:
 502              	.LFB10:
 144:..\RNET/RMAC.c **** 
 145:..\RNET/RMAC.c **** void RMAC_Init(void)
 146:..\RNET/RMAC.c **** {
 503              		.loc 1 146 0
 504              		.cfi_startproc
 505              		@ args = 0, pretend = 0, frame = 0
 506              		@ frame_needed = 0, uses_anonymous_args = 0
 507              		@ link register save eliminated.
 147:..\RNET/RMAC.c ****     RMAC_SeqNr = 0;
 508              		.loc 1 147 0
 509 0000 024B     		ldr	r3, .L36
 510 0002 0022     		movs	r2, #0
 511 0004 1A70     		strb	r2, [r3]
 148:..\RNET/RMAC.c ****     RMAC_ExpectedAckSeqNr = 0;
 512              		.loc 1 148 0
 513 0006 5A70     		strb	r2, [r3, #1]
 149:..\RNET/RMAC.c **** }
 514              		.loc 1 149 0
 515              		@ sp needed
 516 0008 7047     		bx	lr
 517              	.L37:
 518 000a C046     		.align	2
 519              	.L36:
 520 000c 00000000 		.word	.LANCHOR0
 521              		.cfi_endproc
 522              	.LFE10:
 523              		.size	RMAC_Init, .-RMAC_Init
 524              		.section	.rodata.str1.4,"aMS",%progbits,1
 525              		.align	2
 526              	.LC2:
 527 0000 5241434B 		.ascii	"RACK\000"
 527      00
ARM GAS  C:\Users\Xwx47\AppData\Local\Temp\ccWzslpG.s 			page 13


 528 0005 000000   		.space	3
 529              	.LC4:
 530 0008 4E41434B 		.ascii	"NACK\000"
 530      00
 531 000d 000000   		.space	3
 532              	.LC6:
 533 0010 44415441 		.ascii	"DATA\000"
 533      00
 534 0015 000000   		.space	3
 535              	.LC8:
 536 0018 41434B00 		.ascii	"ACK\000"
 537              	.LC10:
 538 001c 434D4400 		.ascii	"CMD\000"
 539              		.bss
 540              		.set	.LANCHOR0,. + 0
 541              		.type	RMAC_SeqNr, %object
 542              		.size	RMAC_SeqNr, 1
 543              	RMAC_SeqNr:
 544 0000 00       		.space	1
 545              		.type	RMAC_ExpectedAckSeqNr, %object
 546              		.size	RMAC_ExpectedAckSeqNr, 1
 547              	RMAC_ExpectedAckSeqNr:
 548 0001 00       		.space	1
 549              		.text
 550              	.Letext0:
 551              		.file 2 "c:\\program files (x86)\\cypress\\psoc creator\\4.1\\psoc creator\\import\\gnu\\arm\\5.4.
 552              		.file 3 "c:\\program files (x86)\\cypress\\psoc creator\\4.1\\psoc creator\\import\\gnu\\arm\\5.4.
 553              		.file 4 "c:\\program files (x86)\\cypress\\psoc creator\\4.1\\psoc creator\\import\\gnu\\arm\\5.4.
 554              		.file 5 "..\\RNET\\RPHY.h"
 555              		.file 6 "..\\RNET\\RMAC.h"
 556              		.file 7 "..\\RNET\\RNWK.h"
 557              		.file 8 "Generated_Source\\PSoC4/RF1_REGS.h"