ARM GAS  C:\Users\Xwx47\AppData\Local\Temp\ccZWEIeQ.s 			page 1


   1              		.syntax unified
   2              		.cpu cortex-m0
   3              		.fpu softvfp
   4              		.eabi_attribute 20, 1
   5              		.eabi_attribute 21, 1
   6              		.eabi_attribute 23, 3
   7              		.eabi_attribute 24, 1
   8              		.eabi_attribute 25, 1
   9              		.eabi_attribute 26, 1
  10              		.eabi_attribute 30, 1
  11              		.eabi_attribute 34, 0
  12              		.eabi_attribute 18, 4
  13              		.thumb
  14              		.syntax unified
  15              		.file	"RMSG.c"
  16              		.text
  17              	.Ltext0:
  18              		.cfi_sections	.debug_frame
  19              		.section	.text.RMSG_RxQueueNofItems,"ax",%progbits
  20              		.align	2
  21              		.global	RMSG_RxQueueNofItems
  22              		.code	16
  23              		.thumb_func
  24              		.type	RMSG_RxQueueNofItems, %function
  25              	RMSG_RxQueueNofItems:
  26              	.LFB32:
  27              		.file 1 "..\\RNET\\RMSG.c"
   1:..\RNET/RMSG.c **** /**
   2:..\RNET/RMSG.c ****  * \file
   3:..\RNET/RMSG.c ****  * \brief This implements a queue/buffer for radio messages
   4:..\RNET/RMSG.c ****  * \author (c) 2013-2014 Erich Styger, http://mcuoneclipse.com/
   5:..\RNET/RMSG.c ****  * \note MIT License (http://opensource.org/licenses/mit-license.html), see
   6:..\RNET/RMSG.c ****  * 'RNet_License.txt'
   7:..\RNET/RMSG.c ****  *
   8:..\RNET/RMSG.c ****  * This module uses queues to retrieve and store radio messages.
   9:..\RNET/RMSG.c ****  */
  10:..\RNET/RMSG.c **** #include "FreeRTOS.h"
  11:..\RNET/RMSG.c **** #include "queue.h"
  12:..\RNET/RMSG.c **** 
  13:..\RNET/RMSG.c **** #include "RMSG.h"
  14:..\RNET/RMSG.c **** #include "RNetConf.h"
  15:..\RNET/RMSG.c **** 
  16:..\RNET/RMSG.c **** #include "Error.h"
  17:..\RNET/RMSG.c **** #include "RPHY.h"
  18:..\RNET/RMSG.c **** 
  19:..\RNET/RMSG.c **** /* Configuration for tx and rx queues */
  20:..\RNET/RMSG.c **** 
  21:..\RNET/RMSG.c **** /* number of items in the queue */
  22:..\RNET/RMSG.c **** #define RMSG_QUEUE_RX_NOF_ITEMS (RNET_CONFIG_MSG_QUEUE_NOF_RX_ITEMS)
  23:..\RNET/RMSG.c **** /* number of items in the queue */
  24:..\RNET/RMSG.c **** #define RMSG_QUEUE_TX_NOF_ITEMS (RNET_CONFIG_MSG_QUEUE_NOF_TX_ITEMS)
  25:..\RNET/RMSG.c **** /* blocking time for putting messages into queue */
  26:..\RNET/RMSG.c **** #define RMSG_QUEUE_PUT_WAIT (RNET_CONFIG_MSG_QUEUE_PUT_BLOCK_TIME_MS)
  27:..\RNET/RMSG.c **** 
  28:..\RNET/RMSG.c **** /* queue for messages, format is: kind(8bit) dataSize(8bit) data */
  29:..\RNET/RMSG.c **** //static xQueueHandle RMSG_MsgRxQueue, RMSG_MsgTxQueue; <- old
  30:..\RNET/RMSG.c **** static QueueHandle_t RMSG_MsgRxQueue, RMSG_MsgTxQueue;
ARM GAS  C:\Users\Xwx47\AppData\Local\Temp\ccZWEIeQ.s 			page 2


  31:..\RNET/RMSG.c **** 
  32:..\RNET/RMSG.c **** unsigned int RMSG_RxQueueNofItems(void)
  33:..\RNET/RMSG.c **** {
  28              		.loc 1 33 0
  29              		.cfi_startproc
  30              		@ args = 0, pretend = 0, frame = 0
  31              		@ frame_needed = 0, uses_anonymous_args = 0
  32 0000 10B5     		push	{r4, lr}
  33              		.cfi_def_cfa_offset 8
  34              		.cfi_offset 4, -8
  35              		.cfi_offset 14, -4
  34:..\RNET/RMSG.c ****     return (unsigned int)uxQueueMessagesWaiting(RMSG_MsgRxQueue);
  36              		.loc 1 34 0
  37 0002 024B     		ldr	r3, .L2
  38 0004 1868     		ldr	r0, [r3]
  39 0006 FFF7FEFF 		bl	uxQueueMessagesWaiting
  40              	.LVL0:
  35:..\RNET/RMSG.c **** }
  41              		.loc 1 35 0
  42              		@ sp needed
  43 000a 10BD     		pop	{r4, pc}
  44              	.L3:
  45              		.align	2
  46              	.L2:
  47 000c 00000000 		.word	.LANCHOR0
  48              		.cfi_endproc
  49              	.LFE32:
  50              		.size	RMSG_RxQueueNofItems, .-RMSG_RxQueueNofItems
  51              		.section	.text.RMSG_TxQueueNofItems,"ax",%progbits
  52              		.align	2
  53              		.global	RMSG_TxQueueNofItems
  54              		.code	16
  55              		.thumb_func
  56              		.type	RMSG_TxQueueNofItems, %function
  57              	RMSG_TxQueueNofItems:
  58              	.LFB33:
  36:..\RNET/RMSG.c **** 
  37:..\RNET/RMSG.c **** unsigned int RMSG_TxQueueNofItems(void)
  38:..\RNET/RMSG.c **** {
  59              		.loc 1 38 0
  60              		.cfi_startproc
  61              		@ args = 0, pretend = 0, frame = 0
  62              		@ frame_needed = 0, uses_anonymous_args = 0
  63 0000 10B5     		push	{r4, lr}
  64              		.cfi_def_cfa_offset 8
  65              		.cfi_offset 4, -8
  66              		.cfi_offset 14, -4
  39:..\RNET/RMSG.c ****     return (unsigned int)uxQueueMessagesWaiting(RMSG_MsgTxQueue);
  67              		.loc 1 39 0
  68 0002 024B     		ldr	r3, .L5
  69 0004 5868     		ldr	r0, [r3, #4]
  70 0006 FFF7FEFF 		bl	uxQueueMessagesWaiting
  71              	.LVL1:
  40:..\RNET/RMSG.c **** }
  72              		.loc 1 40 0
  73              		@ sp needed
  74 000a 10BD     		pop	{r4, pc}
ARM GAS  C:\Users\Xwx47\AppData\Local\Temp\ccZWEIeQ.s 			page 3


  75              	.L6:
  76              		.align	2
  77              	.L5:
  78 000c 00000000 		.word	.LANCHOR0
  79              		.cfi_endproc
  80              	.LFE33:
  81              		.size	RMSG_TxQueueNofItems, .-RMSG_TxQueueNofItems
  82              		.section	.text.RMSG_FlushRxQueue,"ax",%progbits
  83              		.align	2
  84              		.global	RMSG_FlushRxQueue
  85              		.code	16
  86              		.thumb_func
  87              		.type	RMSG_FlushRxQueue, %function
  88              	RMSG_FlushRxQueue:
  89              	.LFB34:
  41:..\RNET/RMSG.c **** 
  42:..\RNET/RMSG.c **** uint8_t RMSG_FlushRxQueue(void)
  43:..\RNET/RMSG.c **** {
  90              		.loc 1 43 0
  91              		.cfi_startproc
  92              		@ args = 0, pretend = 0, frame = 0
  93              		@ frame_needed = 0, uses_anonymous_args = 0
  94 0000 10B5     		push	{r4, lr}
  95              		.cfi_def_cfa_offset 8
  96              		.cfi_offset 4, -8
  97              		.cfi_offset 14, -4
  44:..\RNET/RMSG.c ****     if (xQueueReset(RMSG_MsgRxQueue) != pdPASS) {
  98              		.loc 1 44 0
  99 0002 054B     		ldr	r3, .L10
 100 0004 1868     		ldr	r0, [r3]
 101 0006 0021     		movs	r1, #0
 102 0008 FFF7FEFF 		bl	xQueueGenericReset
 103              	.LVL2:
 104 000c 0128     		cmp	r0, #1
 105 000e 01D0     		beq	.L9
  45:..\RNET/RMSG.c ****         return ERR_FAILED;
 106              		.loc 1 45 0
 107 0010 1B20     		movs	r0, #27
 108 0012 00E0     		b	.L8
 109              	.L9:
  46:..\RNET/RMSG.c ****     }
  47:..\RNET/RMSG.c ****     return ERR_OK;
 110              		.loc 1 47 0
 111 0014 0020     		movs	r0, #0
 112              	.L8:
  48:..\RNET/RMSG.c **** }
 113              		.loc 1 48 0
 114              		@ sp needed
 115 0016 10BD     		pop	{r4, pc}
 116              	.L11:
 117              		.align	2
 118              	.L10:
 119 0018 00000000 		.word	.LANCHOR0
 120              		.cfi_endproc
 121              	.LFE34:
 122              		.size	RMSG_FlushRxQueue, .-RMSG_FlushRxQueue
 123              		.section	.text.RMSG_FlushTxQueue,"ax",%progbits
ARM GAS  C:\Users\Xwx47\AppData\Local\Temp\ccZWEIeQ.s 			page 4


 124              		.align	2
 125              		.global	RMSG_FlushTxQueue
 126              		.code	16
 127              		.thumb_func
 128              		.type	RMSG_FlushTxQueue, %function
 129              	RMSG_FlushTxQueue:
 130              	.LFB35:
  49:..\RNET/RMSG.c **** 
  50:..\RNET/RMSG.c **** uint8_t RMSG_FlushTxQueue(void)
  51:..\RNET/RMSG.c **** {
 131              		.loc 1 51 0
 132              		.cfi_startproc
 133              		@ args = 0, pretend = 0, frame = 0
 134              		@ frame_needed = 0, uses_anonymous_args = 0
 135 0000 10B5     		push	{r4, lr}
 136              		.cfi_def_cfa_offset 8
 137              		.cfi_offset 4, -8
 138              		.cfi_offset 14, -4
  52:..\RNET/RMSG.c ****     if (xQueueReset(RMSG_MsgTxQueue) != pdPASS) {
 139              		.loc 1 52 0
 140 0002 054B     		ldr	r3, .L15
 141 0004 5868     		ldr	r0, [r3, #4]
 142 0006 0021     		movs	r1, #0
 143 0008 FFF7FEFF 		bl	xQueueGenericReset
 144              	.LVL3:
 145 000c 0128     		cmp	r0, #1
 146 000e 01D0     		beq	.L14
  53:..\RNET/RMSG.c ****         return ERR_FAILED;
 147              		.loc 1 53 0
 148 0010 1B20     		movs	r0, #27
 149 0012 00E0     		b	.L13
 150              	.L14:
  54:..\RNET/RMSG.c ****     }
  55:..\RNET/RMSG.c ****     return ERR_OK;
 151              		.loc 1 55 0
 152 0014 0020     		movs	r0, #0
 153              	.L13:
  56:..\RNET/RMSG.c **** }
 154              		.loc 1 56 0
 155              		@ sp needed
 156 0016 10BD     		pop	{r4, pc}
 157              	.L16:
 158              		.align	2
 159              	.L15:
 160 0018 00000000 		.word	.LANCHOR0
 161              		.cfi_endproc
 162              	.LFE35:
 163              		.size	RMSG_FlushTxQueue, .-RMSG_FlushTxQueue
 164              		.section	.text.RMSG_QueuePut,"ax",%progbits
 165              		.align	2
 166              		.global	RMSG_QueuePut
 167              		.code	16
 168              		.thumb_func
 169              		.type	RMSG_QueuePut, %function
 170              	RMSG_QueuePut:
 171              	.LFB36:
  57:..\RNET/RMSG.c **** 
ARM GAS  C:\Users\Xwx47\AppData\Local\Temp\ccZWEIeQ.s 			page 5


  58:..\RNET/RMSG.c **** uint8_t RMSG_QueuePut(uint8_t *buf, size_t bufSize, uint8_t payloadSize,
  59:..\RNET/RMSG.c ****                       bool fromISR, bool isTx, bool toBack,
  60:..\RNET/RMSG.c ****                       RPHY_FlagsType flags)
  61:..\RNET/RMSG.c **** {
 172              		.loc 1 61 0
 173              		.cfi_startproc
 174              		@ args = 12, pretend = 0, frame = 8
 175              		@ frame_needed = 0, uses_anonymous_args = 0
 176              	.LVL4:
 177 0000 70B5     		push	{r4, r5, r6, lr}
 178              		.cfi_def_cfa_offset 16
 179              		.cfi_offset 4, -16
 180              		.cfi_offset 5, -12
 181              		.cfi_offset 6, -8
 182              		.cfi_offset 14, -4
 183 0002 82B0     		sub	sp, sp, #8
 184              		.cfi_def_cfa_offset 24
 185 0004 06AC     		add	r4, sp, #24
 186              	.LVL5:
 187 0006 2578     		ldrb	r5, [r4]
 188 0008 07AC     		add	r4, sp, #28
 189              	.LVL6:
 190 000a 2678     		ldrb	r6, [r4]
 191 000c 08AC     		add	r4, sp, #32
 192              	.LVL7:
 193 000e 2478     		ldrb	r4, [r4]
 194              	.LVL8:
  62:..\RNET/RMSG.c ****     /* data format is: dataSize(8bit) data */
  63:..\RNET/RMSG.c ****     uint8_t res = ERR_OK;
  64:..\RNET/RMSG.c ****     //xQueueHandle queue;
  65:..\RNET/RMSG.c ****     QueueHandle_t queue;
  66:..\RNET/RMSG.c ****     BaseType_t qRes;
  67:..\RNET/RMSG.c **** 
  68:..\RNET/RMSG.c ****     /* more data than can fit into payload! */
  69:..\RNET/RMSG.c ****     if (payloadSize > RPHY_PAYLOAD_SIZE) {
 195              		.loc 1 69 0
 196 0010 202A     		cmp	r2, #32
 197 0012 34D8     		bhi	.L27
  70:..\RNET/RMSG.c ****         return ERR_OVERFLOW;
  71:..\RNET/RMSG.c ****     }
  72:..\RNET/RMSG.c ****     
  73:..\RNET/RMSG.c ****     /* must be exactly this buffer size!!! */
  74:..\RNET/RMSG.c ****     if (bufSize != RPHY_BUFFER_SIZE) {
 198              		.loc 1 74 0
 199 0014 2229     		cmp	r1, #34
 200 0016 34D1     		bne	.L28
  75:..\RNET/RMSG.c ****         return ERR_FAILED;
  76:..\RNET/RMSG.c ****     }
  77:..\RNET/RMSG.c ****     
  78:..\RNET/RMSG.c ****     if (isTx) {
 201              		.loc 1 78 0
 202 0018 002D     		cmp	r5, #0
 203 001a 02D0     		beq	.L19
  79:..\RNET/RMSG.c ****         queue = RMSG_MsgTxQueue;
 204              		.loc 1 79 0
 205 001c 1B49     		ldr	r1, .L31
 206              	.LVL9:
ARM GAS  C:\Users\Xwx47\AppData\Local\Temp\ccZWEIeQ.s 			page 6


 207 001e 4D68     		ldr	r5, [r1, #4]
 208              	.LVL10:
 209 0020 01E0     		b	.L20
 210              	.LVL11:
 211              	.L19:
  80:..\RNET/RMSG.c ****     } else {
  81:..\RNET/RMSG.c ****         queue = RMSG_MsgRxQueue;
 212              		.loc 1 81 0
 213 0022 1A49     		ldr	r1, .L31
 214              	.LVL12:
 215 0024 0D68     		ldr	r5, [r1]
 216              	.LVL13:
 217              	.L20:
  82:..\RNET/RMSG.c ****     }
  83:..\RNET/RMSG.c ****     
  84:..\RNET/RMSG.c ****     RPHY_BUF_FLAGS(buf) = flags;
 218              		.loc 1 84 0
 219 0026 0470     		strb	r4, [r0]
  85:..\RNET/RMSG.c ****     RPHY_BUF_SIZE(buf) = payloadSize;
 220              		.loc 1 85 0
 221 0028 4270     		strb	r2, [r0, #1]
  86:..\RNET/RMSG.c ****     
  87:..\RNET/RMSG.c ****     if (fromISR) {
 222              		.loc 1 87 0
 223 002a 002B     		cmp	r3, #0
 224 002c 14D0     		beq	.L21
 225              	.LBB2:
  88:..\RNET/RMSG.c ****         signed portBASE_TYPE pxHigherPriorityTaskWoken;
  89:..\RNET/RMSG.c **** 
  90:..\RNET/RMSG.c ****         if (toBack) {
 226              		.loc 1 90 0
 227 002e 002E     		cmp	r6, #0
 228 0030 06D0     		beq	.L22
  91:..\RNET/RMSG.c ****             qRes = xQueueSendToBackFromISR(queue, buf, &pxHigherPriorityTaskWoken);
 229              		.loc 1 91 0
 230 0032 0023     		movs	r3, #0
 231              	.LVL14:
 232 0034 01AA     		add	r2, sp, #4
 233              	.LVL15:
 234 0036 0100     		movs	r1, r0
 235 0038 2800     		movs	r0, r5
 236              	.LVL16:
 237 003a FFF7FEFF 		bl	xQueueGenericSendFromISR
 238              	.LVL17:
 239 003e 05E0     		b	.L23
 240              	.LVL18:
 241              	.L22:
  92:..\RNET/RMSG.c ****         } else {
  93:..\RNET/RMSG.c ****             qRes = xQueueSendToFrontFromISR(queue, buf,
 242              		.loc 1 93 0
 243 0040 0123     		movs	r3, #1
 244              	.LVL19:
 245 0042 01AA     		add	r2, sp, #4
 246              	.LVL20:
 247 0044 0100     		movs	r1, r0
 248 0046 2800     		movs	r0, r5
 249              	.LVL21:
ARM GAS  C:\Users\Xwx47\AppData\Local\Temp\ccZWEIeQ.s 			page 7


 250 0048 FFF7FEFF 		bl	xQueueGenericSendFromISR
 251              	.LVL22:
 252              	.L23:
  94:..\RNET/RMSG.c ****                                             &pxHigherPriorityTaskWoken);
  95:..\RNET/RMSG.c ****         }
  96:..\RNET/RMSG.c ****         
  97:..\RNET/RMSG.c ****         if (qRes != pdTRUE) {
 253              		.loc 1 97 0
 254 004c 0128     		cmp	r0, #1
 255 004e 01D1     		bne	.L29
 256              	.LBE2:
  63:..\RNET/RMSG.c ****     //xQueueHandle queue;
 257              		.loc 1 63 0
 258 0050 0020     		movs	r0, #0
 259              	.LVL23:
 260 0052 19E0     		b	.L18
 261              	.LVL24:
 262              	.L29:
 263              	.LBB3:
  98:..\RNET/RMSG.c ****             /* was not able to send to the queue. Well, not much we can do
  99:..\RNET/RMSG.c ****              * here... */
 100:..\RNET/RMSG.c ****             res = ERR_BUSY;
 264              		.loc 1 100 0
 265 0054 0820     		movs	r0, #8
 266              	.LVL25:
 267              	.LBE3:
 268 0056 17E0     		b	.L18
 269              	.LVL26:
 270              	.L21:
 101:..\RNET/RMSG.c ****         }
 102:..\RNET/RMSG.c ****         
 103:..\RNET/RMSG.c ****     } else {
 104:..\RNET/RMSG.c ****         
 105:..\RNET/RMSG.c ****         if (toBack) {
 271              		.loc 1 105 0
 272 0058 002E     		cmp	r6, #0
 273 005a 06D0     		beq	.L25
 106:..\RNET/RMSG.c ****             qRes = xQueueSendToBack(queue, buf, RMSG_QUEUE_PUT_WAIT);
 274              		.loc 1 106 0
 275 005c 0023     		movs	r3, #0
 276              	.LVL27:
 277 005e C822     		movs	r2, #200
 278              	.LVL28:
 279 0060 0100     		movs	r1, r0
 280 0062 2800     		movs	r0, r5
 281              	.LVL29:
 282 0064 FFF7FEFF 		bl	xQueueGenericSend
 283              	.LVL30:
 284 0068 05E0     		b	.L26
 285              	.LVL31:
 286              	.L25:
 107:..\RNET/RMSG.c ****         } else {
 108:..\RNET/RMSG.c ****             qRes = xQueueSendToFront(queue, buf, RMSG_QUEUE_PUT_WAIT);
 287              		.loc 1 108 0
 288 006a 0123     		movs	r3, #1
 289              	.LVL32:
 290 006c C822     		movs	r2, #200
ARM GAS  C:\Users\Xwx47\AppData\Local\Temp\ccZWEIeQ.s 			page 8


 291              	.LVL33:
 292 006e 0100     		movs	r1, r0
 293 0070 2800     		movs	r0, r5
 294              	.LVL34:
 295 0072 FFF7FEFF 		bl	xQueueGenericSend
 296              	.LVL35:
 297              	.L26:
 109:..\RNET/RMSG.c ****         }
 110:..\RNET/RMSG.c ****         
 111:..\RNET/RMSG.c ****         if (qRes != pdTRUE) {
 298              		.loc 1 111 0
 299 0076 0128     		cmp	r0, #1
 300 0078 05D1     		bne	.L30
  63:..\RNET/RMSG.c ****     //xQueueHandle queue;
 301              		.loc 1 63 0
 302 007a 0020     		movs	r0, #0
 303              	.LVL36:
 304 007c 04E0     		b	.L18
 305              	.LVL37:
 306              	.L27:
  70:..\RNET/RMSG.c ****     }
 307              		.loc 1 70 0
 308 007e 0420     		movs	r0, #4
 309              	.LVL38:
 310 0080 02E0     		b	.L18
 311              	.LVL39:
 312              	.L28:
  75:..\RNET/RMSG.c ****     }
 313              		.loc 1 75 0
 314 0082 1B20     		movs	r0, #27
 315              	.LVL40:
 316 0084 00E0     		b	.L18
 317              	.LVL41:
 318              	.L30:
 112:..\RNET/RMSG.c ****             res = ERR_BUSY;
 319              		.loc 1 112 0
 320 0086 0820     		movs	r0, #8
 321              	.LVL42:
 322              	.L18:
 113:..\RNET/RMSG.c ****         }
 114:..\RNET/RMSG.c ****     }
 115:..\RNET/RMSG.c **** 
 116:..\RNET/RMSG.c ****     return res;
 117:..\RNET/RMSG.c **** }
 323              		.loc 1 117 0
 324 0088 02B0     		add	sp, sp, #8
 325              		@ sp needed
 326 008a 70BD     		pop	{r4, r5, r6, pc}
 327              	.L32:
 328              		.align	2
 329              	.L31:
 330 008c 00000000 		.word	.LANCHOR0
 331              		.cfi_endproc
 332              	.LFE36:
 333              		.size	RMSG_QueuePut, .-RMSG_QueuePut
 334              		.section	.text.RMSG_PutRetryTxMsg,"ax",%progbits
 335              		.align	2
ARM GAS  C:\Users\Xwx47\AppData\Local\Temp\ccZWEIeQ.s 			page 9


 336              		.global	RMSG_PutRetryTxMsg
 337              		.code	16
 338              		.thumb_func
 339              		.type	RMSG_PutRetryTxMsg, %function
 340              	RMSG_PutRetryTxMsg:
 341              	.LFB37:
 118:..\RNET/RMSG.c **** 
 119:..\RNET/RMSG.c **** uint8_t RMSG_PutRetryTxMsg(uint8_t *buf, size_t bufSize)
 120:..\RNET/RMSG.c **** {
 342              		.loc 1 120 0
 343              		.cfi_startproc
 344              		@ args = 0, pretend = 0, frame = 0
 345              		@ frame_needed = 0, uses_anonymous_args = 0
 346              	.LVL43:
 347 0000 10B5     		push	{r4, lr}
 348              		.cfi_def_cfa_offset 8
 349              		.cfi_offset 4, -8
 350              		.cfi_offset 14, -4
 121:..\RNET/RMSG.c ****     if (bufSize < RPHY_BUFFER_SIZE) {
 351              		.loc 1 121 0
 352 0002 2129     		cmp	r1, #33
 353 0004 0BD9     		bls	.L35
 122:..\RNET/RMSG.c ****         return ERR_OVERFLOW; /* not enough space in buffer */
 123:..\RNET/RMSG.c ****     }
 124:..\RNET/RMSG.c **** 
 125:..\RNET/RMSG.c ****     if (xQueueSendToFront(RMSG_MsgTxQueue, buf, 0) == pdPASS) {
 354              		.loc 1 125 0
 355 0006 084B     		ldr	r3, .L37
 356 0008 5C68     		ldr	r4, [r3, #4]
 357 000a 0123     		movs	r3, #1
 358 000c 0022     		movs	r2, #0
 359 000e 0100     		movs	r1, r0
 360              	.LVL44:
 361 0010 2000     		movs	r0, r4
 362              	.LVL45:
 363 0012 FFF7FEFF 		bl	xQueueGenericSend
 364              	.LVL46:
 365 0016 0128     		cmp	r0, #1
 366 0018 03D1     		bne	.L36
 126:..\RNET/RMSG.c ****         /* received message from queue */
 127:..\RNET/RMSG.c ****         return ERR_OK;
 367              		.loc 1 127 0
 368 001a 0020     		movs	r0, #0
 369 001c 02E0     		b	.L34
 370              	.LVL47:
 371              	.L35:
 122:..\RNET/RMSG.c ****         return ERR_OVERFLOW; /* not enough space in buffer */
 372              		.loc 1 122 0
 373 001e 0420     		movs	r0, #4
 374              	.LVL48:
 375 0020 00E0     		b	.L34
 376              	.LVL49:
 377              	.L36:
 128:..\RNET/RMSG.c ****     }
 129:..\RNET/RMSG.c **** 
 130:..\RNET/RMSG.c ****     return ERR_RXEMPTY;
 378              		.loc 1 130 0
ARM GAS  C:\Users\Xwx47\AppData\Local\Temp\ccZWEIeQ.s 			page 10


 379 0022 0A20     		movs	r0, #10
 380              	.L34:
 131:..\RNET/RMSG.c **** }
 381              		.loc 1 131 0
 382              		@ sp needed
 383 0024 10BD     		pop	{r4, pc}
 384              	.L38:
 385 0026 C046     		.align	2
 386              	.L37:
 387 0028 00000000 		.word	.LANCHOR0
 388              		.cfi_endproc
 389              	.LFE37:
 390              		.size	RMSG_PutRetryTxMsg, .-RMSG_PutRetryTxMsg
 391              		.section	.text.RMSG_GetTxMsg,"ax",%progbits
 392              		.align	2
 393              		.global	RMSG_GetTxMsg
 394              		.code	16
 395              		.thumb_func
 396              		.type	RMSG_GetTxMsg, %function
 397              	RMSG_GetTxMsg:
 398              	.LFB38:
 132:..\RNET/RMSG.c **** 
 133:..\RNET/RMSG.c **** uint8_t RMSG_GetTxMsg(uint8_t *buf, size_t bufSize)
 134:..\RNET/RMSG.c **** {
 399              		.loc 1 134 0
 400              		.cfi_startproc
 401              		@ args = 0, pretend = 0, frame = 0
 402              		@ frame_needed = 0, uses_anonymous_args = 0
 403              	.LVL50:
 404 0000 10B5     		push	{r4, lr}
 405              		.cfi_def_cfa_offset 8
 406              		.cfi_offset 4, -8
 407              		.cfi_offset 14, -4
 135:..\RNET/RMSG.c ****     if (bufSize < RPHY_BUFFER_SIZE) {
 408              		.loc 1 135 0
 409 0002 2129     		cmp	r1, #33
 410 0004 0AD9     		bls	.L41
 136:..\RNET/RMSG.c ****         return ERR_OVERFLOW; /* not enough space in buffer */
 137:..\RNET/RMSG.c ****     }
 138:..\RNET/RMSG.c **** 
 139:..\RNET/RMSG.c ****     if (xQueueReceive(RMSG_MsgTxQueue, buf, 0) == pdPASS) {
 411              		.loc 1 139 0
 412 0006 074B     		ldr	r3, .L43
 413 0008 5B68     		ldr	r3, [r3, #4]
 414 000a 0022     		movs	r2, #0
 415 000c 0100     		movs	r1, r0
 416              	.LVL51:
 417 000e 1800     		movs	r0, r3
 418              	.LVL52:
 419 0010 FFF7FEFF 		bl	xQueueReceive
 420              	.LVL53:
 421 0014 0128     		cmp	r0, #1
 422 0016 03D1     		bne	.L42
 140:..\RNET/RMSG.c ****         /* received message from queue */
 141:..\RNET/RMSG.c ****         return ERR_OK;
 423              		.loc 1 141 0
 424 0018 0020     		movs	r0, #0
ARM GAS  C:\Users\Xwx47\AppData\Local\Temp\ccZWEIeQ.s 			page 11


 425 001a 02E0     		b	.L40
 426              	.LVL54:
 427              	.L41:
 136:..\RNET/RMSG.c ****         return ERR_OVERFLOW; /* not enough space in buffer */
 428              		.loc 1 136 0
 429 001c 0420     		movs	r0, #4
 430              	.LVL55:
 431 001e 00E0     		b	.L40
 432              	.LVL56:
 433              	.L42:
 142:..\RNET/RMSG.c ****     }
 143:..\RNET/RMSG.c ****     return ERR_RXEMPTY;
 434              		.loc 1 143 0
 435 0020 0A20     		movs	r0, #10
 436              	.L40:
 144:..\RNET/RMSG.c **** }
 437              		.loc 1 144 0
 438              		@ sp needed
 439 0022 10BD     		pop	{r4, pc}
 440              	.L44:
 441              		.align	2
 442              	.L43:
 443 0024 00000000 		.word	.LANCHOR0
 444              		.cfi_endproc
 445              	.LFE38:
 446              		.size	RMSG_GetTxMsg, .-RMSG_GetTxMsg
 447              		.section	.text.RMSG_GetRxMsg,"ax",%progbits
 448              		.align	2
 449              		.global	RMSG_GetRxMsg
 450              		.code	16
 451              		.thumb_func
 452              		.type	RMSG_GetRxMsg, %function
 453              	RMSG_GetRxMsg:
 454              	.LFB39:
 145:..\RNET/RMSG.c **** 
 146:..\RNET/RMSG.c **** uint8_t RMSG_GetRxMsg(uint8_t *buf, size_t bufSize)
 147:..\RNET/RMSG.c **** {
 455              		.loc 1 147 0
 456              		.cfi_startproc
 457              		@ args = 0, pretend = 0, frame = 0
 458              		@ frame_needed = 0, uses_anonymous_args = 0
 459              	.LVL57:
 460 0000 10B5     		push	{r4, lr}
 461              		.cfi_def_cfa_offset 8
 462              		.cfi_offset 4, -8
 463              		.cfi_offset 14, -4
 148:..\RNET/RMSG.c ****     /* first byte in the queue is the size of the item */
 149:..\RNET/RMSG.c ****     if (bufSize < RPHY_BUFFER_SIZE) {
 464              		.loc 1 149 0
 465 0002 2129     		cmp	r1, #33
 466 0004 0AD9     		bls	.L47
 150:..\RNET/RMSG.c ****         return ERR_OVERFLOW; /* not enough space in buffer */
 151:..\RNET/RMSG.c ****     }
 152:..\RNET/RMSG.c **** 
 153:..\RNET/RMSG.c ****     /* immediately returns if queue is empty */
 154:..\RNET/RMSG.c ****     if (xQueueReceive(RMSG_MsgRxQueue, buf, 0) == pdPASS) {
 467              		.loc 1 154 0
ARM GAS  C:\Users\Xwx47\AppData\Local\Temp\ccZWEIeQ.s 			page 12


 468 0006 074B     		ldr	r3, .L49
 469 0008 1B68     		ldr	r3, [r3]
 470 000a 0022     		movs	r2, #0
 471 000c 0100     		movs	r1, r0
 472              	.LVL58:
 473 000e 1800     		movs	r0, r3
 474              	.LVL59:
 475 0010 FFF7FEFF 		bl	xQueueReceive
 476              	.LVL60:
 477 0014 0128     		cmp	r0, #1
 478 0016 03D1     		bne	.L48
 155:..\RNET/RMSG.c ****         /* received message from queue */
 156:..\RNET/RMSG.c ****         return ERR_OK;
 479              		.loc 1 156 0
 480 0018 0020     		movs	r0, #0
 481 001a 02E0     		b	.L46
 482              	.LVL61:
 483              	.L47:
 150:..\RNET/RMSG.c ****         return ERR_OVERFLOW; /* not enough space in buffer */
 484              		.loc 1 150 0
 485 001c 0420     		movs	r0, #4
 486              	.LVL62:
 487 001e 00E0     		b	.L46
 488              	.LVL63:
 489              	.L48:
 157:..\RNET/RMSG.c ****     }
 158:..\RNET/RMSG.c **** 
 159:..\RNET/RMSG.c ****     return ERR_RXEMPTY;
 490              		.loc 1 159 0
 491 0020 0A20     		movs	r0, #10
 492              	.L46:
 160:..\RNET/RMSG.c **** }
 493              		.loc 1 160 0
 494              		@ sp needed
 495 0022 10BD     		pop	{r4, pc}
 496              	.L50:
 497              		.align	2
 498              	.L49:
 499 0024 00000000 		.word	.LANCHOR0
 500              		.cfi_endproc
 501              	.LFE39:
 502              		.size	RMSG_GetRxMsg, .-RMSG_GetRxMsg
 503              		.section	.text.RMSG_QueueTxMsg,"ax",%progbits
 504              		.align	2
 505              		.global	RMSG_QueueTxMsg
 506              		.code	16
 507              		.thumb_func
 508              		.type	RMSG_QueueTxMsg, %function
 509              	RMSG_QueueTxMsg:
 510              	.LFB40:
 161:..\RNET/RMSG.c **** 
 162:..\RNET/RMSG.c **** uint8_t RMSG_QueueTxMsg(uint8_t *buf, size_t bufSize, uint8_t payloadSize,
 163:..\RNET/RMSG.c ****                         RPHY_FlagsType flags)
 164:..\RNET/RMSG.c **** {
 511              		.loc 1 164 0
 512              		.cfi_startproc
 513              		@ args = 0, pretend = 0, frame = 0
ARM GAS  C:\Users\Xwx47\AppData\Local\Temp\ccZWEIeQ.s 			page 13


 514              		@ frame_needed = 0, uses_anonymous_args = 0
 515              	.LVL64:
 516 0000 00B5     		push	{lr}
 517              		.cfi_def_cfa_offset 4
 518              		.cfi_offset 14, -4
 519 0002 85B0     		sub	sp, sp, #20
 520              		.cfi_def_cfa_offset 24
 165:..\RNET/RMSG.c ****     return RMSG_QueuePut(buf, bufSize, payloadSize, false, true, true, flags);
 521              		.loc 1 165 0
 522 0004 0293     		str	r3, [sp, #8]
 523 0006 0123     		movs	r3, #1
 524              	.LVL65:
 525 0008 0193     		str	r3, [sp, #4]
 526 000a 0093     		str	r3, [sp]
 527 000c 0023     		movs	r3, #0
 528 000e FFF7FEFF 		bl	RMSG_QueuePut
 529              	.LVL66:
 166:..\RNET/RMSG.c **** }
 530              		.loc 1 166 0
 531 0012 05B0     		add	sp, sp, #20
 532              		@ sp needed
 533 0014 00BD     		pop	{pc}
 534              		.cfi_endproc
 535              	.LFE40:
 536              		.size	RMSG_QueueTxMsg, .-RMSG_QueueTxMsg
 537 0016 C046     		.section	.text.RMSG_QueueRxMsg,"ax",%progbits
 538              		.align	2
 539              		.global	RMSG_QueueRxMsg
 540              		.code	16
 541              		.thumb_func
 542              		.type	RMSG_QueueRxMsg, %function
 543              	RMSG_QueueRxMsg:
 544              	.LFB41:
 167:..\RNET/RMSG.c **** 
 168:..\RNET/RMSG.c **** uint8_t RMSG_QueueRxMsg(uint8_t *buf, size_t bufSize, uint8_t payloadSize,
 169:..\RNET/RMSG.c ****                         RPHY_FlagsType flags)
 170:..\RNET/RMSG.c **** {
 545              		.loc 1 170 0
 546              		.cfi_startproc
 547              		@ args = 0, pretend = 0, frame = 0
 548              		@ frame_needed = 0, uses_anonymous_args = 0
 549              	.LVL67:
 550 0000 00B5     		push	{lr}
 551              		.cfi_def_cfa_offset 4
 552              		.cfi_offset 14, -4
 553 0002 85B0     		sub	sp, sp, #20
 554              		.cfi_def_cfa_offset 24
 171:..\RNET/RMSG.c ****     return RMSG_QueuePut(buf, bufSize, payloadSize, false, false, true, flags);
 555              		.loc 1 171 0
 556 0004 0293     		str	r3, [sp, #8]
 557 0006 0123     		movs	r3, #1
 558              	.LVL68:
 559 0008 0193     		str	r3, [sp, #4]
 560 000a 0023     		movs	r3, #0
 561 000c 0093     		str	r3, [sp]
 562 000e FFF7FEFF 		bl	RMSG_QueuePut
 563              	.LVL69:
ARM GAS  C:\Users\Xwx47\AppData\Local\Temp\ccZWEIeQ.s 			page 14


 172:..\RNET/RMSG.c **** }
 564              		.loc 1 172 0
 565 0012 05B0     		add	sp, sp, #20
 566              		@ sp needed
 567 0014 00BD     		pop	{pc}
 568              		.cfi_endproc
 569              	.LFE41:
 570              		.size	RMSG_QueueRxMsg, .-RMSG_QueueRxMsg
 571 0016 C046     		.section	.text.RMSG_Deinit,"ax",%progbits
 572              		.align	2
 573              		.global	RMSG_Deinit
 574              		.code	16
 575              		.thumb_func
 576              		.type	RMSG_Deinit, %function
 577              	RMSG_Deinit:
 578              	.LFB42:
 173:..\RNET/RMSG.c **** 
 174:..\RNET/RMSG.c **** void RMSG_Deinit(void)
 175:..\RNET/RMSG.c **** {
 579              		.loc 1 175 0
 580              		.cfi_startproc
 581              		@ args = 0, pretend = 0, frame = 0
 582              		@ frame_needed = 0, uses_anonymous_args = 0
 583 0000 70B5     		push	{r4, r5, r6, lr}
 584              		.cfi_def_cfa_offset 16
 585              		.cfi_offset 4, -16
 586              		.cfi_offset 5, -12
 587              		.cfi_offset 6, -8
 588              		.cfi_offset 14, -4
 176:..\RNET/RMSG.c ****     vQueueUnregisterQueue(RMSG_MsgRxQueue);
 589              		.loc 1 176 0
 590 0002 084C     		ldr	r4, .L54
 591 0004 2068     		ldr	r0, [r4]
 592 0006 FFF7FEFF 		bl	vQueueUnregisterQueue
 593              	.LVL70:
 177:..\RNET/RMSG.c ****     vQueueDelete(RMSG_MsgRxQueue);
 594              		.loc 1 177 0
 595 000a 2068     		ldr	r0, [r4]
 596 000c FFF7FEFF 		bl	vQueueDelete
 597              	.LVL71:
 178:..\RNET/RMSG.c ****     RMSG_MsgRxQueue = NULL;
 598              		.loc 1 178 0
 599 0010 0025     		movs	r5, #0
 600 0012 2560     		str	r5, [r4]
 179:..\RNET/RMSG.c **** 
 180:..\RNET/RMSG.c ****     vQueueUnregisterQueue(RMSG_MsgTxQueue);
 601              		.loc 1 180 0
 602 0014 6068     		ldr	r0, [r4, #4]
 603 0016 FFF7FEFF 		bl	vQueueUnregisterQueue
 604              	.LVL72:
 181:..\RNET/RMSG.c ****     vQueueDelete(RMSG_MsgTxQueue);
 605              		.loc 1 181 0
 606 001a 6068     		ldr	r0, [r4, #4]
 607 001c FFF7FEFF 		bl	vQueueDelete
 608              	.LVL73:
 182:..\RNET/RMSG.c ****     RMSG_MsgTxQueue = NULL;
 609              		.loc 1 182 0
ARM GAS  C:\Users\Xwx47\AppData\Local\Temp\ccZWEIeQ.s 			page 15


 610 0020 6560     		str	r5, [r4, #4]
 183:..\RNET/RMSG.c **** }
 611              		.loc 1 183 0
 612              		@ sp needed
 613 0022 70BD     		pop	{r4, r5, r6, pc}
 614              	.L55:
 615              		.align	2
 616              	.L54:
 617 0024 00000000 		.word	.LANCHOR0
 618              		.cfi_endproc
 619              	.LFE42:
 620              		.size	RMSG_Deinit, .-RMSG_Deinit
 621              		.section	.text.RMSG_Init,"ax",%progbits
 622              		.align	2
 623              		.global	RMSG_Init
 624              		.code	16
 625              		.thumb_func
 626              		.type	RMSG_Init, %function
 627              	RMSG_Init:
 628              	.LFB43:
 184:..\RNET/RMSG.c **** 
 185:..\RNET/RMSG.c **** void RMSG_Init(void)
 186:..\RNET/RMSG.c **** {
 629              		.loc 1 186 0
 630              		.cfi_startproc
 631              		@ args = 0, pretend = 0, frame = 0
 632              		@ frame_needed = 0, uses_anonymous_args = 0
 633 0000 10B5     		push	{r4, lr}
 634              		.cfi_def_cfa_offset 8
 635              		.cfi_offset 4, -8
 636              		.cfi_offset 14, -4
 187:..\RNET/RMSG.c ****     RMSG_MsgRxQueue = xQueueCreate(RMSG_QUEUE_RX_NOF_ITEMS, RPHY_BUFFER_SIZE);
 637              		.loc 1 187 0
 638 0002 0022     		movs	r2, #0
 639 0004 2221     		movs	r1, #34
 640 0006 0620     		movs	r0, #6
 641 0008 FFF7FEFF 		bl	xQueueGenericCreate
 642              	.LVL74:
 643 000c 0A4B     		ldr	r3, .L61
 644 000e 1860     		str	r0, [r3]
 188:..\RNET/RMSG.c **** 
 189:..\RNET/RMSG.c ****     if (RMSG_MsgRxQueue == NULL) { /* queue creation failed! */
 645              		.loc 1 189 0
 646 0010 0028     		cmp	r0, #0
 647 0012 00D1     		bne	.L57
 648              	.L58:
 649 0014 FEE7     		b	.L58
 650              	.L57:
 190:..\RNET/RMSG.c ****         for (;;) {
 191:..\RNET/RMSG.c ****         } /* not enough memory? */
 192:..\RNET/RMSG.c ****     }
 193:..\RNET/RMSG.c **** 
 194:..\RNET/RMSG.c ****     vQueueAddToRegistry(RMSG_MsgRxQueue, "RadioRxMsg");
 651              		.loc 1 194 0
 652 0016 0949     		ldr	r1, .L61+4
 653 0018 FFF7FEFF 		bl	vQueueAddToRegistry
 654              	.LVL75:
ARM GAS  C:\Users\Xwx47\AppData\Local\Temp\ccZWEIeQ.s 			page 16


 195:..\RNET/RMSG.c **** #if configUSE_TRACE_HOOKS
 196:..\RNET/RMSG.c ****     vTraceSetQueueName(RMSG_MsgRxQueue, "RadioRxMsg");
 197:..\RNET/RMSG.c **** #endif
 198:..\RNET/RMSG.c **** 
 199:..\RNET/RMSG.c ****     RMSG_MsgTxQueue = xQueueCreate(RMSG_QUEUE_TX_NOF_ITEMS, RPHY_BUFFER_SIZE);
 655              		.loc 1 199 0
 656 001c 0022     		movs	r2, #0
 657 001e 2221     		movs	r1, #34
 658 0020 0620     		movs	r0, #6
 659 0022 FFF7FEFF 		bl	xQueueGenericCreate
 660              	.LVL76:
 661 0026 044B     		ldr	r3, .L61
 662 0028 5860     		str	r0, [r3, #4]
 200:..\RNET/RMSG.c **** 
 201:..\RNET/RMSG.c ****     /* queue creation failed! */
 202:..\RNET/RMSG.c ****     if (RMSG_MsgTxQueue == NULL) {
 663              		.loc 1 202 0
 664 002a 0028     		cmp	r0, #0
 665 002c 00D1     		bne	.L59
 666              	.L60:
 667 002e FEE7     		b	.L60
 668              	.L59:
 203:..\RNET/RMSG.c ****         for (;;) {
 204:..\RNET/RMSG.c ****         } /* not enough memory? */
 205:..\RNET/RMSG.c ****     }
 206:..\RNET/RMSG.c **** 
 207:..\RNET/RMSG.c ****     vQueueAddToRegistry(RMSG_MsgTxQueue, "RadioTxMsg");
 669              		.loc 1 207 0
 670 0030 0349     		ldr	r1, .L61+8
 671 0032 FFF7FEFF 		bl	vQueueAddToRegistry
 672              	.LVL77:
 208:..\RNET/RMSG.c **** #if configUSE_TRACE_HOOKS
 209:..\RNET/RMSG.c ****     vTraceSetQueueName(RMSG_MsgTxQueue, "RadioTxMsg");
 210:..\RNET/RMSG.c **** #endif
 211:..\RNET/RMSG.c **** }
 673              		.loc 1 211 0
 674              		@ sp needed
 675 0036 10BD     		pop	{r4, pc}
 676              	.L62:
 677              		.align	2
 678              	.L61:
 679 0038 00000000 		.word	.LANCHOR0
 680 003c 00000000 		.word	.LC10
 681 0040 0C000000 		.word	.LC12
 682              		.cfi_endproc
 683              	.LFE43:
 684              		.size	RMSG_Init, .-RMSG_Init
 685              		.section	.rodata.str1.4,"aMS",%progbits,1
 686              		.align	2
 687              	.LC10:
 688 0000 52616469 		.ascii	"RadioRxMsg\000"
 688      6F52784D 
 688      736700
 689 000b 00       		.space	1
 690              	.LC12:
 691 000c 52616469 		.ascii	"RadioTxMsg\000"
 691      6F54784D 
ARM GAS  C:\Users\Xwx47\AppData\Local\Temp\ccZWEIeQ.s 			page 17


 691      736700
 692              		.bss
 693              		.align	2
 694              		.set	.LANCHOR0,. + 0
 695              		.type	RMSG_MsgRxQueue, %object
 696              		.size	RMSG_MsgRxQueue, 4
 697              	RMSG_MsgRxQueue:
 698 0000 00000000 		.space	4
 699              		.type	RMSG_MsgTxQueue, %object
 700              		.size	RMSG_MsgTxQueue, 4
 701              	RMSG_MsgTxQueue:
 702 0004 00000000 		.space	4
 703              		.text
 704              	.Letext0:
 705              		.file 2 "c:\\program files (x86)\\cypress\\psoc creator\\4.1\\psoc creator\\import\\gnu\\arm\\5.4.
 706              		.file 3 "c:\\program files (x86)\\cypress\\psoc creator\\4.1\\psoc creator\\import\\gnu\\arm\\5.4.
 707              		.file 4 "c:\\program files (x86)\\cypress\\psoc creator\\4.1\\psoc creator\\import\\gnu\\arm\\5.4.
 708              		.file 5 "..\\FreeRTOS\\portable\\GCC\\ARM_CM0/portmacro.h"
 709              		.file 6 "..\\FreeRTOS\\include/queue.h"
 710              		.file 7 "..\\RNET\\RPHY.h"
 711              		.file 8 "Generated_Source\\PSoC4/RF1_REGS.h"