ARM GAS  C:\Users\Xwx47\AppData\Local\Temp\cciBlm4n.s 			page 1


   1              		.syntax unified
   2              		.cpu cortex-m0
   3              		.fpu softvfp
   4              		.eabi_attribute 20, 1
   5              		.eabi_attribute 21, 1
   6              		.eabi_attribute 23, 3
   7              		.eabi_attribute 24, 1
   8              		.eabi_attribute 25, 1
   9              		.eabi_attribute 26, 1
  10              		.eabi_attribute 30, 1
  11              		.eabi_attribute 34, 0
  12              		.eabi_attribute 18, 4
  13              		.thumb
  14              		.syntax unified
  15              		.file	"RNWK.c"
  16              		.text
  17              	.Ltext0:
  18              		.cfi_sections	.debug_frame
  19              		.section	.text.RNWK_GetThisNodeAddr,"ax",%progbits
  20              		.align	2
  21              		.global	RNWK_GetThisNodeAddr
  22              		.code	16
  23              		.thumb_func
  24              		.type	RNWK_GetThisNodeAddr, %function
  25              	RNWK_GetThisNodeAddr:
  26              	.LFB0:
  27              		.file 1 "..\\RNET\\RNWK.c"
   1:..\RNET/RNWK.c **** /**
   2:..\RNET/RNWK.c ****  * \file
   3:..\RNET/RNWK.c ****  * \brief Radio Network NWK Layer Implementation
   4:..\RNET/RNWK.c ****  * \author (c) 2013-2014 Erich Styger, http://mcuoneclipse.com/
   5:..\RNET/RNWK.c ****  * \note MIT License (http://opensource.org/licenses/mit-license.html), see
   6:..\RNET/RNWK.c ****  * 'RNet_License.txt'
   7:..\RNET/RNWK.c ****  *
   8:..\RNET/RNWK.c ****  * This module implements the NWK (Network) of the radio network stack.
   9:..\RNET/RNWK.c ****  */
  10:..\RNET/RNWK.c **** 
  11:..\RNET/RNWK.c **** #include "RNWK.h"
  12:..\RNET/RNWK.c **** #include "RApp.h"
  13:..\RNET/RNWK.c **** #include "RMAC.h"
  14:..\RNET/RNWK.c **** #include "RNetConf.h"
  15:..\RNET/RNWK.c **** #include "RPHY.h"
  16:..\RNET/RNWK.c **** 
  17:..\RNET/RNWK.c **** #include "Error.h"
  18:..\RNET/RNWK.c **** //#include "UTIL1.h"
  19:..\RNET/RNWK.c **** 
  20:..\RNET/RNWK.c **** static RNWK_ShortAddrType RNWK_ThisNodeAddr =
  21:..\RNET/RNWK.c ****     RNWK_ADDR_BROADCAST; /* address of this network node */
  22:..\RNET/RNWK.c **** static RNWK_AppOnRxCallbackType RNWK_AppOnRxCallback =
  23:..\RNET/RNWK.c ****     NULL; /* notification callback installed by upper layer */
  24:..\RNET/RNWK.c **** 
  25:..\RNET/RNWK.c **** RNWK_ShortAddrType RNWK_GetThisNodeAddr(void) { return RNWK_ThisNodeAddr; }
  28              		.loc 1 25 0
  29              		.cfi_startproc
  30              		@ args = 0, pretend = 0, frame = 0
  31              		@ frame_needed = 0, uses_anonymous_args = 0
  32              		@ link register save eliminated.
ARM GAS  C:\Users\Xwx47\AppData\Local\Temp\cciBlm4n.s 			page 2


  33              		.loc 1 25 0
  34 0000 014B     		ldr	r3, .L2
  35 0002 1878     		ldrb	r0, [r3]
  36              		@ sp needed
  37 0004 7047     		bx	lr
  38              	.L3:
  39 0006 C046     		.align	2
  40              	.L2:
  41 0008 00000000 		.word	.LANCHOR0
  42              		.cfi_endproc
  43              	.LFE0:
  44              		.size	RNWK_GetThisNodeAddr, .-RNWK_GetThisNodeAddr
  45              		.section	.text.RNWK_SetThisNodeAddr,"ax",%progbits
  46              		.align	2
  47              		.global	RNWK_SetThisNodeAddr
  48              		.code	16
  49              		.thumb_func
  50              		.type	RNWK_SetThisNodeAddr, %function
  51              	RNWK_SetThisNodeAddr:
  52              	.LFB1:
  26:..\RNET/RNWK.c **** 
  27:..\RNET/RNWK.c **** uint8_t RNWK_SetThisNodeAddr(RNWK_ShortAddrType addr)
  28:..\RNET/RNWK.c **** {
  53              		.loc 1 28 0
  54              		.cfi_startproc
  55              		@ args = 0, pretend = 0, frame = 0
  56              		@ frame_needed = 0, uses_anonymous_args = 0
  57              		@ link register save eliminated.
  58              	.LVL0:
  29:..\RNET/RNWK.c ****     RNWK_ThisNodeAddr = addr;
  59              		.loc 1 29 0
  60 0000 014B     		ldr	r3, .L5
  61 0002 1870     		strb	r0, [r3]
  30:..\RNET/RNWK.c ****     return ERR_OK;
  31:..\RNET/RNWK.c **** }
  62              		.loc 1 31 0
  63 0004 0020     		movs	r0, #0
  64              	.LVL1:
  65              		@ sp needed
  66 0006 7047     		bx	lr
  67              	.L6:
  68              		.align	2
  69              	.L5:
  70 0008 00000000 		.word	.LANCHOR0
  71              		.cfi_endproc
  72              	.LFE1:
  73              		.size	RNWK_SetThisNodeAddr, .-RNWK_SetThisNodeAddr
  74              		.section	.text.RNWK_SetAppOnPacketRxCallback,"ax",%progbits
  75              		.align	2
  76              		.global	RNWK_SetAppOnPacketRxCallback
  77              		.code	16
  78              		.thumb_func
  79              		.type	RNWK_SetAppOnPacketRxCallback, %function
  80              	RNWK_SetAppOnPacketRxCallback:
  81              	.LFB2:
  32:..\RNET/RNWK.c **** 
  33:..\RNET/RNWK.c **** uint8_t RNWK_SetAppOnPacketRxCallback(RNWK_AppOnRxCallbackType callback)
ARM GAS  C:\Users\Xwx47\AppData\Local\Temp\cciBlm4n.s 			page 3


  34:..\RNET/RNWK.c **** {
  82              		.loc 1 34 0
  83              		.cfi_startproc
  84              		@ args = 0, pretend = 0, frame = 0
  85              		@ frame_needed = 0, uses_anonymous_args = 0
  86              		@ link register save eliminated.
  87              	.LVL2:
  35:..\RNET/RNWK.c ****     RNWK_AppOnRxCallback = callback;
  88              		.loc 1 35 0
  89 0000 014B     		ldr	r3, .L8
  90 0002 1860     		str	r0, [r3]
  36:..\RNET/RNWK.c ****     return ERR_OK;
  37:..\RNET/RNWK.c **** }
  91              		.loc 1 37 0
  92 0004 0020     		movs	r0, #0
  93              	.LVL3:
  94              		@ sp needed
  95 0006 7047     		bx	lr
  96              	.L9:
  97              		.align	2
  98              	.L8:
  99 0008 00000000 		.word	.LANCHOR1
 100              		.cfi_endproc
 101              	.LFE2:
 102              		.size	RNWK_SetAppOnPacketRxCallback, .-RNWK_SetAppOnPacketRxCallback
 103              		.section	.text.RNWK_PutPayload,"ax",%progbits
 104              		.align	2
 105              		.global	RNWK_PutPayload
 106              		.code	16
 107              		.thumb_func
 108              		.type	RNWK_PutPayload, %function
 109              	RNWK_PutPayload:
 110              	.LFB3:
  38:..\RNET/RNWK.c **** 
  39:..\RNET/RNWK.c **** uint8_t RNWK_PutPayload(uint8_t *buf, size_t bufSize, uint8_t payloadSize,
  40:..\RNET/RNWK.c ****                         RNWK_ShortAddrType dstAddr, RPHY_FlagsType flags)
  41:..\RNET/RNWK.c **** {
 111              		.loc 1 41 0
 112              		.cfi_startproc
 113              		@ args = 4, pretend = 0, frame = 8
 114              		@ frame_needed = 0, uses_anonymous_args = 0
 115              	.LVL4:
 116 0000 F0B5     		push	{r4, r5, r6, r7, lr}
 117              		.cfi_def_cfa_offset 20
 118              		.cfi_offset 4, -20
 119              		.cfi_offset 5, -16
 120              		.cfi_offset 6, -12
 121              		.cfi_offset 7, -8
 122              		.cfi_offset 14, -4
 123 0002 83B0     		sub	sp, sp, #12
 124              		.cfi_def_cfa_offset 32
 125 0004 0600     		movs	r6, r0
 126 0006 0191     		str	r1, [sp, #4]
 127 0008 1400     		movs	r4, r2
 128 000a 1D00     		movs	r5, r3
 129 000c 08AB     		add	r3, sp, #32
 130              	.LVL5:
ARM GAS  C:\Users\Xwx47\AppData\Local\Temp\cciBlm4n.s 			page 4


 131 000e 1F78     		ldrb	r7, [r3]
  42:..\RNET/RNWK.c ****     RNWK_ShortAddrType srcAddr;
  43:..\RNET/RNWK.c **** 
  44:..\RNET/RNWK.c ****     srcAddr = RNWK_GetThisNodeAddr();
 132              		.loc 1 44 0
 133 0010 FFF7FEFF 		bl	RNWK_GetThisNodeAddr
 134              	.LVL6:
  45:..\RNET/RNWK.c ****     RNWK_BUF_SET_SRC_ADDR(buf, srcAddr);
 135              		.loc 1 45 0
 136 0014 3071     		strb	r0, [r6, #4]
  46:..\RNET/RNWK.c ****     RNWK_BUF_SET_DST_ADDR(buf, dstAddr);
 137              		.loc 1 46 0
 138 0016 7571     		strb	r5, [r6, #5]
  47:..\RNET/RNWK.c ****     return RMAC_PutPayload(buf, bufSize, payloadSize + RNWK_HEADER_SIZE, flags);
 139              		.loc 1 47 0
 140 0018 0234     		adds	r4, r4, #2
 141 001a E2B2     		uxtb	r2, r4
 142 001c 3B00     		movs	r3, r7
 143 001e 0199     		ldr	r1, [sp, #4]
 144 0020 3000     		movs	r0, r6
 145              	.LVL7:
 146 0022 FFF7FEFF 		bl	RMAC_PutPayload
 147              	.LVL8:
  48:..\RNET/RNWK.c **** }
 148              		.loc 1 48 0
 149 0026 03B0     		add	sp, sp, #12
 150              		@ sp needed
 151              	.LVL9:
 152 0028 F0BD     		pop	{r4, r5, r6, r7, pc}
 153              		.cfi_endproc
 154              	.LFE3:
 155              		.size	RNWK_PutPayload, .-RNWK_PutPayload
 156 002a C046     		.section	.text.RNWK_SendACK,"ax",%progbits
 157              		.align	2
 158              		.global	RNWK_SendACK
 159              		.code	16
 160              		.thumb_func
 161              		.type	RNWK_SendACK, %function
 162              	RNWK_SendACK:
 163              	.LFB4:
  49:..\RNET/RNWK.c **** 
  50:..\RNET/RNWK.c **** uint8_t RNWK_SendACK(RPHY_PacketDesc *rxPacket, RNWK_ShortAddrType saddr)
  51:..\RNET/RNWK.c **** {
 164              		.loc 1 51 0
 165              		.cfi_startproc
 166              		@ args = 0, pretend = 0, frame = 48
 167              		@ frame_needed = 0, uses_anonymous_args = 0
 168              	.LVL10:
 169 0000 10B5     		push	{r4, lr}
 170              		.cfi_def_cfa_offset 8
 171              		.cfi_offset 4, -8
 172              		.cfi_offset 14, -4
 173 0002 8CB0     		sub	sp, sp, #48
 174              		.cfi_def_cfa_offset 56
  52:..\RNET/RNWK.c ****     RNWK_ShortAddrType addr;
  53:..\RNET/RNWK.c ****     uint8_t buf[RMAC_BUFFER_SIZE];
  54:..\RNET/RNWK.c ****     RPHY_PacketDesc ackPacket;
ARM GAS  C:\Users\Xwx47\AppData\Local\Temp\cciBlm4n.s 			page 5


  55:..\RNET/RNWK.c **** 
  56:..\RNET/RNWK.c ****     ackPacket.flags = RPHY_PACKET_FLAGS_NONE;
 175              		.loc 1 56 0
 176 0004 0023     		movs	r3, #0
 177 0006 6A46     		mov	r2, sp
 178 0008 1370     		strb	r3, [r2]
  57:..\RNET/RNWK.c ****     ackPacket.phyData = buf;
 179              		.loc 1 57 0
 180 000a 03AB     		add	r3, sp, #12
 181 000c 0193     		str	r3, [sp, #4]
  58:..\RNET/RNWK.c ****     ackPacket.phySize = sizeof(buf);
 182              		.loc 1 58 0
 183 000e 2222     		movs	r2, #34
 184 0010 6C46     		mov	r4, sp
 185 0012 6270     		strb	r2, [r4, #1]
  59:..\RNET/RNWK.c **** 
  60:..\RNET/RNWK.c ****     /* send an ack message back: this is is of type ack with src and dst address
  61:..\RNET/RNWK.c ****      */
  62:..\RNET/RNWK.c ****     addr = RNWK_BUF_GET_SRC_ADDR(
 186              		.loc 1 62 0
 187 0014 4268     		ldr	r2, [r0, #4]
 188 0016 1279     		ldrb	r2, [r2, #4]
 189              	.LVL11:
  63:..\RNET/RNWK.c ****         rxPacket->phyData); /* who should receive the ack? */
  64:..\RNET/RNWK.c ****     RNWK_BUF_SET_SRC_ADDR(ackPacket.phyData, saddr); /* set source address */
 190              		.loc 1 64 0
 191 0018 1971     		strb	r1, [r3, #4]
  65:..\RNET/RNWK.c ****     RNWK_BUF_SET_DST_ADDR(
 192              		.loc 1 65 0
 193 001a 5A71     		strb	r2, [r3, #5]
  66:..\RNET/RNWK.c ****         ackPacket.phyData,
  67:..\RNET/RNWK.c ****         addr); /* destination address is from where we got the data */
  68:..\RNET/RNWK.c ****     return RMAC_SendACK(rxPacket, &ackPacket);
 194              		.loc 1 68 0
 195 001c 6946     		mov	r1, sp
 196              	.LVL12:
 197 001e FFF7FEFF 		bl	RMAC_SendACK
 198              	.LVL13:
  69:..\RNET/RNWK.c **** }
 199              		.loc 1 69 0
 200 0022 0CB0     		add	sp, sp, #48
 201              		@ sp needed
 202 0024 10BD     		pop	{r4, pc}
 203              		.cfi_endproc
 204              	.LFE4:
 205              		.size	RNWK_SendACK, .-RNWK_SendACK
 206 0026 C046     		.section	.text.RNWK_OnPacketRx,"ax",%progbits
 207              		.align	2
 208              		.global	RNWK_OnPacketRx
 209              		.code	16
 210              		.thumb_func
 211              		.type	RNWK_OnPacketRx, %function
 212              	RNWK_OnPacketRx:
 213              	.LFB5:
  70:..\RNET/RNWK.c **** 
  71:..\RNET/RNWK.c **** uint8_t RNWK_OnPacketRx(RPHY_PacketDesc *packet)
  72:..\RNET/RNWK.c **** {
ARM GAS  C:\Users\Xwx47\AppData\Local\Temp\cciBlm4n.s 			page 6


 214              		.loc 1 72 0
 215              		.cfi_startproc
 216              		@ args = 0, pretend = 0, frame = 0
 217              		@ frame_needed = 0, uses_anonymous_args = 0
 218              	.LVL14:
 219 0000 70B5     		push	{r4, r5, r6, lr}
 220              		.cfi_def_cfa_offset 16
 221              		.cfi_offset 4, -16
 222              		.cfi_offset 5, -12
 223              		.cfi_offset 6, -8
 224              		.cfi_offset 14, -4
 225 0002 0500     		movs	r5, r0
  73:..\RNET/RNWK.c ****     RNWK_ShortAddrType addr;
  74:..\RNET/RNWK.c ****     RMAC_MsgType type;
  75:..\RNET/RNWK.c **** 
  76:..\RNET/RNWK.c ****     addr = RNWK_BUF_GET_DST_ADDR(packet->phyData);
 226              		.loc 1 76 0
 227 0004 4668     		ldr	r6, [r0, #4]
 228 0006 7479     		ldrb	r4, [r6, #5]
 229              	.LVL15:
  77:..\RNET/RNWK.c ****     if (addr == RNWK_ADDR_BROADCAST ||
 230              		.loc 1 77 0
 231 0008 FF2C     		cmp	r4, #255
 232 000a 03D0     		beq	.L13
  78:..\RNET/RNWK.c ****         addr == RNWK_GetThisNodeAddr()) { /* it is for me :-) */
 233              		.loc 1 78 0 discriminator 1
 234 000c FFF7FEFF 		bl	RNWK_GetThisNodeAddr
 235              	.LVL16:
  77:..\RNET/RNWK.c ****     if (addr == RNWK_ADDR_BROADCAST ||
 236              		.loc 1 77 0 discriminator 1
 237 0010 8442     		cmp	r4, r0
 238 0012 25D1     		bne	.L17
 239              	.L13:
  79:..\RNET/RNWK.c ****         type = RMAC_GetType(packet->phyData,
  80:..\RNET/RNWK.c ****                             packet->phySize); /* get the type of the message */
 240              		.loc 1 80 0
 241 0014 6978     		ldrb	r1, [r5, #1]
  79:..\RNET/RNWK.c ****         type = RMAC_GetType(packet->phyData,
 242              		.loc 1 79 0
 243 0016 3000     		movs	r0, r6
 244 0018 FFF7FEFF 		bl	RMAC_GetType
 245              	.LVL17:
 246 001c 0400     		movs	r4, r0
 247              	.LVL18:
  81:..\RNET/RNWK.c ****         if (RMAC_MSG_TYPE_IS_ACK(type) &&
 248              		.loc 1 81 0
 249 001e 8307     		lsls	r3, r0, #30
 250 0020 0BD5     		bpl	.L15
  82:..\RNET/RNWK.c ****             RMAC_IsExpectedACK(packet->phyData, packet->phySize)) {
 251              		.loc 1 82 0 discriminator 1
 252 0022 6978     		ldrb	r1, [r5, #1]
 253 0024 6868     		ldr	r0, [r5, #4]
 254              	.LVL19:
 255 0026 FFF7FEFF 		bl	RMAC_IsExpectedACK
 256              	.LVL20:
  81:..\RNET/RNWK.c ****         if (RMAC_MSG_TYPE_IS_ACK(type) &&
 257              		.loc 1 81 0 discriminator 1
ARM GAS  C:\Users\Xwx47\AppData\Local\Temp\cciBlm4n.s 			page 7


 258 002a 0028     		cmp	r0, #0
 259 002c 05D0     		beq	.L15
  83:..\RNET/RNWK.c ****             /* it is an ACK, and the sequence number matches. Mark it with a
  84:..\RNET/RNWK.c ****              * flag and return, as no need for further processing */
  85:..\RNET/RNWK.c ****             packet->flags |= RPHY_PACKET_FLAGS_IS_ACK;
 260              		.loc 1 85 0
 261 002e 2A78     		ldrb	r2, [r5]
 262 0030 0123     		movs	r3, #1
 263 0032 1343     		orrs	r3, r2
 264 0034 2B70     		strb	r3, [r5]
  86:..\RNET/RNWK.c ****             return ERR_OK; /* no need to process the packet further */
 265              		.loc 1 86 0
 266 0036 0020     		movs	r0, #0
 267 0038 17E0     		b	.L14
 268              	.L15:
  87:..\RNET/RNWK.c ****         } else if (RMAC_MSG_TYPE_IS_DATA(type)) {  /* data packet received */
 269              		.loc 1 87 0
 270 003a E307     		lsls	r3, r4, #31
 271 003c 12D5     		bpl	.L18
  88:..\RNET/RNWK.c ****             if (RNWK_AppOnRxCallback != NULL) {    /* do we have a callback? */
 272              		.loc 1 88 0
 273 003e 0B4B     		ldr	r3, .L20
 274 0040 1B68     		ldr	r3, [r3]
 275 0042 002B     		cmp	r3, #0
 276 0044 10D0     		beq	.L19
  89:..\RNET/RNWK.c ****                 if (RMAC_MSG_TYPE_REQ_ACK(type)) { /* ACK requested */
 277              		.loc 1 89 0
 278 0046 2306     		lsls	r3, r4, #24
 279 0048 05D5     		bpl	.L16
  90:..\RNET/RNWK.c ****                     (void)RNWK_SendACK(
 280              		.loc 1 90 0
 281 004a FFF7FEFF 		bl	RNWK_GetThisNodeAddr
 282              	.LVL21:
 283 004e 0100     		movs	r1, r0
 284 0050 2800     		movs	r0, r5
 285 0052 FFF7FEFF 		bl	RNWK_SendACK
 286              	.LVL22:
 287              	.L16:
  91:..\RNET/RNWK.c ****                         packet,
  92:..\RNET/RNWK.c ****                         RNWK_GetThisNodeAddr()); /* send ack message back */
  93:..\RNET/RNWK.c ****                 }
  94:..\RNET/RNWK.c ****                 return RNWK_AppOnRxCallback(packet); /* call upper layer */
 288              		.loc 1 94 0
 289 0056 054B     		ldr	r3, .L20
 290 0058 1B68     		ldr	r3, [r3]
 291 005a 2800     		movs	r0, r5
 292 005c 9847     		blx	r3
 293              	.LVL23:
 294 005e 04E0     		b	.L14
 295              	.LVL24:
 296              	.L17:
  95:..\RNET/RNWK.c ****             }
  96:..\RNET/RNWK.c ****         } else {
  97:..\RNET/RNWK.c ****             return ERR_FAULT; /* wrong message type? */
  98:..\RNET/RNWK.c ****         }
  99:..\RNET/RNWK.c ****     }
 100:..\RNET/RNWK.c ****     return ERR_FAILED;
ARM GAS  C:\Users\Xwx47\AppData\Local\Temp\cciBlm4n.s 			page 8


 297              		.loc 1 100 0
 298 0060 1B20     		movs	r0, #27
 299 0062 02E0     		b	.L14
 300              	.LVL25:
 301              	.L18:
  97:..\RNET/RNWK.c ****         }
 302              		.loc 1 97 0
 303 0064 1220     		movs	r0, #18
 304 0066 00E0     		b	.L14
 305              	.L19:
 306              		.loc 1 100 0
 307 0068 1B20     		movs	r0, #27
 308              	.L14:
 101:..\RNET/RNWK.c **** }
 309              		.loc 1 101 0
 310              		@ sp needed
 311              	.LVL26:
 312 006a 70BD     		pop	{r4, r5, r6, pc}
 313              	.L21:
 314              		.align	2
 315              	.L20:
 316 006c 00000000 		.word	.LANCHOR1
 317              		.cfi_endproc
 318              	.LFE5:
 319              		.size	RNWK_OnPacketRx, .-RNWK_OnPacketRx
 320              		.section	.text.RNWK_SniffPacket,"ax",%progbits
 321              		.align	2
 322              		.global	RNWK_SniffPacket
 323              		.code	16
 324              		.thumb_func
 325              		.type	RNWK_SniffPacket, %function
 326              	RNWK_SniffPacket:
 327              	.LFB6:
 102:..\RNET/RNWK.c **** 
 103:..\RNET/RNWK.c **** void RNWK_SniffPacket(RPHY_PacketDesc *packet, bool isTx)
 104:..\RNET/RNWK.c **** {
 328              		.loc 1 104 0
 329              		.cfi_startproc
 330              		@ args = 0, pretend = 0, frame = 0
 331              		@ frame_needed = 0, uses_anonymous_args = 0
 332              	.LVL27:
 333 0000 10B5     		push	{r4, lr}
 334              		.cfi_def_cfa_offset 8
 335              		.cfi_offset 4, -8
 336              		.cfi_offset 14, -4
 105:..\RNET/RNWK.c ****     RAPP_SniffPacket(packet, isTx);
 337              		.loc 1 105 0
 338 0002 FFF7FEFF 		bl	RAPP_SniffPacket
 339              	.LVL28:
 106:..\RNET/RNWK.c **** }
 340              		.loc 1 106 0
 341              		@ sp needed
 342 0006 10BD     		pop	{r4, pc}
 343              		.cfi_endproc
 344              	.LFE6:
 345              		.size	RNWK_SniffPacket, .-RNWK_SniffPacket
 346              		.section	.text.RNWK_Deinit,"ax",%progbits
ARM GAS  C:\Users\Xwx47\AppData\Local\Temp\cciBlm4n.s 			page 9


 347              		.align	2
 348              		.global	RNWK_Deinit
 349              		.code	16
 350              		.thumb_func
 351              		.type	RNWK_Deinit, %function
 352              	RNWK_Deinit:
 353              	.LFB7:
 107:..\RNET/RNWK.c **** 
 108:..\RNET/RNWK.c **** void RNWK_Deinit(void) { /* nothing needed */ }
 354              		.loc 1 108 0
 355              		.cfi_startproc
 356              		@ args = 0, pretend = 0, frame = 0
 357              		@ frame_needed = 0, uses_anonymous_args = 0
 358              		@ link register save eliminated.
 359              		.loc 1 108 0
 360              		@ sp needed
 361 0000 7047     		bx	lr
 362              		.cfi_endproc
 363              	.LFE7:
 364              		.size	RNWK_Deinit, .-RNWK_Deinit
 365 0002 C046     		.section	.text.RNWK_Init,"ax",%progbits
 366              		.align	2
 367              		.global	RNWK_Init
 368              		.code	16
 369              		.thumb_func
 370              		.type	RNWK_Init, %function
 371              	RNWK_Init:
 372              	.LFB8:
 109:..\RNET/RNWK.c **** 
 110:..\RNET/RNWK.c **** void RNWK_Init(void)
 111:..\RNET/RNWK.c **** {
 373              		.loc 1 111 0
 374              		.cfi_startproc
 375              		@ args = 0, pretend = 0, frame = 0
 376              		@ frame_needed = 0, uses_anonymous_args = 0
 377              		@ link register save eliminated.
 112:..\RNET/RNWK.c ****     RNWK_ThisNodeAddr = RNWK_ADDR_BROADCAST;
 378              		.loc 1 112 0
 379 0000 FF22     		movs	r2, #255
 380 0002 034B     		ldr	r3, .L25
 381 0004 1A70     		strb	r2, [r3]
 113:..\RNET/RNWK.c ****     RNWK_AppOnRxCallback = NULL;
 382              		.loc 1 113 0
 383 0006 0022     		movs	r2, #0
 384 0008 024B     		ldr	r3, .L25+4
 385 000a 1A60     		str	r2, [r3]
 114:..\RNET/RNWK.c **** }
 386              		.loc 1 114 0
 387              		@ sp needed
 388 000c 7047     		bx	lr
 389              	.L26:
 390 000e C046     		.align	2
 391              	.L25:
 392 0010 00000000 		.word	.LANCHOR0
 393 0014 00000000 		.word	.LANCHOR1
 394              		.cfi_endproc
 395              	.LFE8:
ARM GAS  C:\Users\Xwx47\AppData\Local\Temp\cciBlm4n.s 			page 10


 396              		.size	RNWK_Init, .-RNWK_Init
 397              		.data
 398              		.set	.LANCHOR0,. + 0
 399              		.type	RNWK_ThisNodeAddr, %object
 400              		.size	RNWK_ThisNodeAddr, 1
 401              	RNWK_ThisNodeAddr:
 402 0000 FF       		.byte	-1
 403              		.bss
 404              		.align	2
 405              		.set	.LANCHOR1,. + 0
 406              		.type	RNWK_AppOnRxCallback, %object
 407              		.size	RNWK_AppOnRxCallback, 4
 408              	RNWK_AppOnRxCallback:
 409 0000 00000000 		.space	4
 410              		.text
 411              	.Letext0:
 412              		.file 2 "c:\\program files (x86)\\cypress\\psoc creator\\4.1\\psoc creator\\import\\gnu\\arm\\5.4.
 413              		.file 3 "c:\\program files (x86)\\cypress\\psoc creator\\4.1\\psoc creator\\import\\gnu\\arm\\5.4.
 414              		.file 4 "c:\\program files (x86)\\cypress\\psoc creator\\4.1\\psoc creator\\import\\gnu\\arm\\5.4.
 415              		.file 5 "..\\RNET\\RPHY.h"
 416              		.file 6 "..\\RNET\\RMAC.h"
 417              		.file 7 "..\\RNET\\RNWK.h"
 418              		.file 8 "..\\RNET\\RApp.h"
 419              		.file 9 "Generated_Source\\PSoC4/RF1_REGS.h"