ARM GAS  C:\Users\Xwx47\AppData\Local\Temp\ccbTHu0I.s 			page 1


   1              		.syntax unified
   2              		.cpu cortex-m0
   3              		.fpu softvfp
   4              		.eabi_attribute 20, 1
   5              		.eabi_attribute 21, 1
   6              		.eabi_attribute 23, 3
   7              		.eabi_attribute 24, 1
   8              		.eabi_attribute 25, 1
   9              		.eabi_attribute 26, 1
  10              		.eabi_attribute 30, 1
  11              		.eabi_attribute 34, 0
  12              		.eabi_attribute 18, 4
  13              		.thumb
  14              		.syntax unified
  15              		.file	"RPHY.c"
  16              		.text
  17              	.Ltext0:
  18              		.cfi_sections	.debug_frame
  19              		.section	.text.RPHY_FlushRxQueue,"ax",%progbits
  20              		.align	2
  21              		.global	RPHY_FlushRxQueue
  22              		.code	16
  23              		.thumb_func
  24              		.type	RPHY_FlushRxQueue, %function
  25              	RPHY_FlushRxQueue:
  26              	.LFB0:
  27              		.file 1 "..\\RNET\\RPHY.c"
   1:..\RNET/RPHY.c **** /**
   2:..\RNET/RPHY.c ****  * \file
   3:..\RNET/RPHY.c ****  * \brief This implements the PHY layer of the network stack.
   4:..\RNET/RPHY.c ****  * \author (c) 2013-2014 Erich Styger, http://mcuoneclipse.com/
   5:..\RNET/RPHY.c ****  * \note MIT License (http://opensource.org/licenses/mit-license.html), see
   6:..\RNET/RPHY.c ****  * 'RNet_License.txt'
   7:..\RNET/RPHY.c ****  *
   8:..\RNET/RPHY.c ****  * This module is used to process the raw payload packets.
   9:..\RNET/RPHY.c ****  */
  10:..\RNET/RPHY.c **** 
  11:..\RNET/RPHY.c **** #include "RPHY.h"
  12:..\RNET/RPHY.c **** #include "RMAC.h"
  13:..\RNET/RPHY.c **** #include "RMSG.h"
  14:..\RNET/RPHY.c **** #include "RNetConf.h"
  15:..\RNET/RPHY.c **** 
  16:..\RNET/RPHY.c **** uint8_t RPHY_FlushRxQueue(void)
  17:..\RNET/RPHY.c **** {
  28              		.loc 1 17 0
  29              		.cfi_startproc
  30              		@ args = 0, pretend = 0, frame = 0
  31              		@ frame_needed = 0, uses_anonymous_args = 0
  32 0000 10B5     		push	{r4, lr}
  33              		.cfi_def_cfa_offset 8
  34              		.cfi_offset 4, -8
  35              		.cfi_offset 14, -4
  18:..\RNET/RPHY.c ****     return RMSG_FlushRxQueue();
  36              		.loc 1 18 0
  37 0002 FFF7FEFF 		bl	RMSG_FlushRxQueue
  38              	.LVL0:
  19:..\RNET/RPHY.c **** }
ARM GAS  C:\Users\Xwx47\AppData\Local\Temp\ccbTHu0I.s 			page 2


  39              		.loc 1 19 0
  40              		@ sp needed
  41 0006 10BD     		pop	{r4, pc}
  42              		.cfi_endproc
  43              	.LFE0:
  44              		.size	RPHY_FlushRxQueue, .-RPHY_FlushRxQueue
  45              		.section	.text.RPHY_FlushTxQueue,"ax",%progbits
  46              		.align	2
  47              		.global	RPHY_FlushTxQueue
  48              		.code	16
  49              		.thumb_func
  50              		.type	RPHY_FlushTxQueue, %function
  51              	RPHY_FlushTxQueue:
  52              	.LFB1:
  20:..\RNET/RPHY.c **** 
  21:..\RNET/RPHY.c **** uint8_t RPHY_FlushTxQueue(void)
  22:..\RNET/RPHY.c **** {
  53              		.loc 1 22 0
  54              		.cfi_startproc
  55              		@ args = 0, pretend = 0, frame = 0
  56              		@ frame_needed = 0, uses_anonymous_args = 0
  57 0000 10B5     		push	{r4, lr}
  58              		.cfi_def_cfa_offset 8
  59              		.cfi_offset 4, -8
  60              		.cfi_offset 14, -4
  23:..\RNET/RPHY.c ****     return RMSG_FlushTxQueue();
  61              		.loc 1 23 0
  62 0002 FFF7FEFF 		bl	RMSG_FlushTxQueue
  63              	.LVL1:
  24:..\RNET/RPHY.c **** }
  64              		.loc 1 24 0
  65              		@ sp needed
  66 0006 10BD     		pop	{r4, pc}
  67              		.cfi_endproc
  68              	.LFE1:
  69              		.size	RPHY_FlushTxQueue, .-RPHY_FlushTxQueue
  70              		.section	.text.RPHY_GetPayload,"ax",%progbits
  71              		.align	2
  72              		.global	RPHY_GetPayload
  73              		.code	16
  74              		.thumb_func
  75              		.type	RPHY_GetPayload, %function
  76              	RPHY_GetPayload:
  77              	.LFB2:
  25:..\RNET/RPHY.c **** 
  26:..\RNET/RPHY.c **** uint8_t RPHY_GetPayload(RPHY_PacketDesc *packet)
  27:..\RNET/RPHY.c **** {
  78              		.loc 1 27 0
  79              		.cfi_startproc
  80              		@ args = 0, pretend = 0, frame = 0
  81              		@ frame_needed = 0, uses_anonymous_args = 0
  82              	.LVL2:
  83 0000 10B5     		push	{r4, lr}
  84              		.cfi_def_cfa_offset 8
  85              		.cfi_offset 4, -8
  86              		.cfi_offset 14, -4
  28:..\RNET/RPHY.c ****     packet->flags = RPHY_PACKET_FLAGS_NONE;
ARM GAS  C:\Users\Xwx47\AppData\Local\Temp\ccbTHu0I.s 			page 3


  87              		.loc 1 28 0
  88 0002 0023     		movs	r3, #0
  89 0004 0370     		strb	r3, [r0]
  29:..\RNET/RPHY.c ****     
  30:..\RNET/RPHY.c ****     /* ERR_OK, ERR_OVERFLOW or ERR_RXEMPTY */
  31:..\RNET/RPHY.c ****     return RMSG_GetRxMsg(packet->phyData, packet->phySize);
  90              		.loc 1 31 0
  91 0006 4178     		ldrb	r1, [r0, #1]
  92 0008 4068     		ldr	r0, [r0, #4]
  93              	.LVL3:
  94 000a FFF7FEFF 		bl	RMSG_GetRxMsg
  95              	.LVL4:
  32:..\RNET/RPHY.c **** }
  96              		.loc 1 32 0
  97              		@ sp needed
  98 000e 10BD     		pop	{r4, pc}
  99              		.cfi_endproc
 100              	.LFE2:
 101              		.size	RPHY_GetPayload, .-RPHY_GetPayload
 102              		.section	.text.RPHY_OnPacketRx,"ax",%progbits
 103              		.align	2
 104              		.global	RPHY_OnPacketRx
 105              		.code	16
 106              		.thumb_func
 107              		.type	RPHY_OnPacketRx, %function
 108              	RPHY_OnPacketRx:
 109              	.LFB3:
  33:..\RNET/RPHY.c **** 
  34:..\RNET/RPHY.c **** uint8_t RPHY_OnPacketRx(RPHY_PacketDesc *packet)
  35:..\RNET/RPHY.c **** {
 110              		.loc 1 35 0
 111              		.cfi_startproc
 112              		@ args = 0, pretend = 0, frame = 0
 113              		@ frame_needed = 0, uses_anonymous_args = 0
 114              	.LVL5:
 115 0000 10B5     		push	{r4, lr}
 116              		.cfi_def_cfa_offset 8
 117              		.cfi_offset 4, -8
 118              		.cfi_offset 14, -4
  36:..\RNET/RPHY.c ****     /* pass message up the stack */
  37:..\RNET/RPHY.c ****     return RMAC_OnPacketRx(packet);
 119              		.loc 1 37 0
 120 0002 FFF7FEFF 		bl	RMAC_OnPacketRx
 121              	.LVL6:
  38:..\RNET/RPHY.c **** }
 122              		.loc 1 38 0
 123              		@ sp needed
 124 0006 10BD     		pop	{r4, pc}
 125              		.cfi_endproc
 126              	.LFE3:
 127              		.size	RPHY_OnPacketRx, .-RPHY_OnPacketRx
 128              		.section	.text.RPHY_PutPayload,"ax",%progbits
 129              		.align	2
 130              		.global	RPHY_PutPayload
 131              		.code	16
 132              		.thumb_func
 133              		.type	RPHY_PutPayload, %function
ARM GAS  C:\Users\Xwx47\AppData\Local\Temp\ccbTHu0I.s 			page 4


 134              	RPHY_PutPayload:
 135              	.LFB4:
  39:..\RNET/RPHY.c **** 
  40:..\RNET/RPHY.c **** uint8_t RPHY_PutPayload(uint8_t *buf, size_t bufSize, uint8_t payloadSize,
  41:..\RNET/RPHY.c ****                         RPHY_FlagsType flags)
  42:..\RNET/RPHY.c **** {
 136              		.loc 1 42 0
 137              		.cfi_startproc
 138              		@ args = 0, pretend = 0, frame = 0
 139              		@ frame_needed = 0, uses_anonymous_args = 0
 140              	.LVL7:
 141 0000 10B5     		push	{r4, lr}
 142              		.cfi_def_cfa_offset 8
 143              		.cfi_offset 4, -8
 144              		.cfi_offset 14, -4
  43:..\RNET/RPHY.c ****     return RMSG_QueueTxMsg(buf, bufSize, payloadSize, flags);
 145              		.loc 1 43 0
 146 0002 FFF7FEFF 		bl	RMSG_QueueTxMsg
 147              	.LVL8:
  44:..\RNET/RPHY.c **** }
 148              		.loc 1 44 0
 149              		@ sp needed
 150 0006 10BD     		pop	{r4, pc}
 151              		.cfi_endproc
 152              	.LFE4:
 153              		.size	RPHY_PutPayload, .-RPHY_PutPayload
 154              		.section	.text.RPHY_SniffPacket,"ax",%progbits
 155              		.align	2
 156              		.global	RPHY_SniffPacket
 157              		.code	16
 158              		.thumb_func
 159              		.type	RPHY_SniffPacket, %function
 160              	RPHY_SniffPacket:
 161              	.LFB5:
  45:..\RNET/RPHY.c **** 
  46:..\RNET/RPHY.c **** void RPHY_SniffPacket(RPHY_PacketDesc *packet, bool isTx)
  47:..\RNET/RPHY.c **** {
 162              		.loc 1 47 0
 163              		.cfi_startproc
 164              		@ args = 0, pretend = 0, frame = 0
 165              		@ frame_needed = 0, uses_anonymous_args = 0
 166              	.LVL9:
 167 0000 10B5     		push	{r4, lr}
 168              		.cfi_def_cfa_offset 8
 169              		.cfi_offset 4, -8
 170              		.cfi_offset 14, -4
  48:..\RNET/RPHY.c ****     RMAC_SniffPacket(packet, isTx);
 171              		.loc 1 48 0
 172 0002 FFF7FEFF 		bl	RMAC_SniffPacket
 173              	.LVL10:
  49:..\RNET/RPHY.c **** }
 174              		.loc 1 49 0
 175              		@ sp needed
 176 0006 10BD     		pop	{r4, pc}
 177              		.cfi_endproc
 178              	.LFE5:
 179              		.size	RPHY_SniffPacket, .-RPHY_SniffPacket
ARM GAS  C:\Users\Xwx47\AppData\Local\Temp\ccbTHu0I.s 			page 5


 180              		.section	.text.RPHY_Deinit,"ax",%progbits
 181              		.align	2
 182              		.global	RPHY_Deinit
 183              		.code	16
 184              		.thumb_func
 185              		.type	RPHY_Deinit, %function
 186              	RPHY_Deinit:
 187              	.LFB6:
  50:..\RNET/RPHY.c **** 
  51:..\RNET/RPHY.c **** void RPHY_Deinit(void)
  52:..\RNET/RPHY.c **** {
 188              		.loc 1 52 0
 189              		.cfi_startproc
 190              		@ args = 0, pretend = 0, frame = 0
 191              		@ frame_needed = 0, uses_anonymous_args = 0
 192              		@ link register save eliminated.
  53:..\RNET/RPHY.c ****     /* nothing needed */
  54:..\RNET/RPHY.c **** }
 193              		.loc 1 54 0
 194              		@ sp needed
 195 0000 7047     		bx	lr
 196              		.cfi_endproc
 197              	.LFE6:
 198              		.size	RPHY_Deinit, .-RPHY_Deinit
 199 0002 C046     		.section	.text.RPHY_Init,"ax",%progbits
 200              		.align	2
 201              		.global	RPHY_Init
 202              		.code	16
 203              		.thumb_func
 204              		.type	RPHY_Init, %function
 205              	RPHY_Init:
 206              	.LFB7:
  55:..\RNET/RPHY.c **** 
  56:..\RNET/RPHY.c **** void RPHY_Init(void)
  57:..\RNET/RPHY.c **** {
 207              		.loc 1 57 0
 208              		.cfi_startproc
 209              		@ args = 0, pretend = 0, frame = 0
 210              		@ frame_needed = 0, uses_anonymous_args = 0
 211              		@ link register save eliminated.
  58:..\RNET/RPHY.c ****     /* nothing needed */
  59:..\RNET/RPHY.c **** }
 212              		.loc 1 59 0
 213              		@ sp needed
 214 0000 7047     		bx	lr
 215              		.cfi_endproc
 216              	.LFE7:
 217              		.size	RPHY_Init, .-RPHY_Init
 218 0002 C046     		.text
 219              	.Letext0:
 220              		.file 2 "c:\\program files (x86)\\cypress\\psoc creator\\4.1\\psoc creator\\import\\gnu\\arm\\5.4.
 221              		.file 3 "c:\\program files (x86)\\cypress\\psoc creator\\4.1\\psoc creator\\import\\gnu\\arm\\5.4.
 222              		.file 4 "c:\\program files (x86)\\cypress\\psoc creator\\4.1\\psoc creator\\import\\gnu\\arm\\5.4.
 223              		.file 5 "..\\RNET\\RPHY.h"
 224              		.file 6 "..\\RNET\\RMSG.h"
 225              		.file 7 "..\\RNET\\RMAC.h"